---
triple:          'arm64-apple-darwin'
binary-path:     "/Users/xlx/VScode/CPP/程序设计/大作业/Demo/Demo"
relocations:
  - { offsetInCU: 0x3F, offset: 0x3F, size: 0x8, addend: 0x0, symName: _rd, symObjAddr: 0x5BB58, symBinAddr: 0x100010020, symSize: 0x0 }
  - { offsetInCU: 0x8D90, offset: 0x8D90, size: 0x8, addend: 0x0, symName: __ZNSt3__124__put_character_sequenceB8ue170006IcNS_11char_traitsIcEEEERNS_13basic_ostreamIT_T0_EES7_PKS4_m, symObjAddr: 0x73C0, symBinAddr: 0x100007A8C, symSize: 0x1EC }
  - { offsetInCU: 0xAE26, offset: 0xAE26, size: 0x8, addend: 0x0, symName: __ZNSt3__1lsB8ue170006INS_11char_traitsIcEEEERNS_13basic_ostreamIcT_EES6_PKc, symObjAddr: 0x23C, symBinAddr: 0x100000908, symSize: 0x48 }
  - { offsetInCU: 0xAE6C, offset: 0xAE6C, size: 0x8, addend: 0x0, symName: __ZNSt3__118__constexpr_strlenB8ue170006EPKc, symObjAddr: 0xD1C, symBinAddr: 0x1000013E8, symSize: 0x24 }
  - { offsetInCU: 0xAE98, offset: 0xAE98, size: 0x8, addend: 0x0, symName: __ZNSt3__1neB8ue170006ERKNS_16__deque_iteratorINS_4pairIiiEEPS2_RS2_PS3_lLl512EEES8_, symObjAddr: 0x12F0, symBinAddr: 0x1000019BC, symSize: 0x34 }
  - { offsetInCU: 0xAED5, offset: 0xAED5, size: 0x8, addend: 0x0, symName: __ZNSt3__1eqB8ue170006ERKNS_16__deque_iteratorINS_4pairIiiEEPS2_RS2_PS3_lLl512EEES8_, symObjAddr: 0x163C, symBinAddr: 0x100001D08, symSize: 0x30 }
  - { offsetInCU: 0xAF12, offset: 0xAF12, size: 0x8, addend: 0x0, symName: __ZNSt3__112__to_addressB8ue170006INS_4pairIiiEEEEPT_S4_, symObjAddr: 0x1CCC, symBinAddr: 0x100002398, symSize: 0x14 }
  - { offsetInCU: 0xAF47, offset: 0xAF47, size: 0x8, addend: 0x0, symName: __ZNSt3__119__libcpp_deallocateB8ue170006EPvmm, symObjAddr: 0x1E38, symBinAddr: 0x100002504, symSize: 0x30 }
  - { offsetInCU: 0xAF8F, offset: 0xAF8F, size: 0x8, addend: 0x0, symName: __ZNSt3__127__do_deallocate_handle_sizeB8ue170006IJEEEvPvmDpT_, symObjAddr: 0x1E68, symBinAddr: 0x100002534, symSize: 0x28 }
  - { offsetInCU: 0xAFCD, offset: 0xAFCD, size: 0x8, addend: 0x0, symName: __ZNSt3__124__libcpp_operator_deleteB8ue170006IJPvEEEvDpT_, symObjAddr: 0x1E90, symBinAddr: 0x10000255C, symSize: 0x24 }
  - { offsetInCU: 0xB002, offset: 0xB002, size: 0x8, addend: 0x0, symName: __ZNSt3__112__to_addressB8ue170006IPNS_4pairIiiEEEEPT_S5_, symObjAddr: 0x2114, symBinAddr: 0x1000027E0, symSize: 0x14 }
  - { offsetInCU: 0xB037, offset: 0xB037, size: 0x8, addend: 0x0, symName: __ZNSt3__112__to_addressB8ue170006INS_6vectorI6EntityNS_9allocatorIS2_EEEEEEPT_S7_, symObjAddr: 0x2BD4, symBinAddr: 0x1000032A0, symSize: 0x14 }
  - { offsetInCU: 0xB06C, offset: 0xB06C, size: 0x8, addend: 0x0, symName: __ZNSt3__122__make_exception_guardB8ue170006INS_6vectorI6EntityNS_9allocatorIS2_EEE16__destroy_vectorEEENS_28__exception_guard_exceptionsIT_EES8_, symObjAddr: 0x2F5C, symBinAddr: 0x100003628, symSize: 0x40 }
  - { offsetInCU: 0xB0A1, offset: 0xB0A1, size: 0x8, addend: 0x0, symName: __ZNSt3__119__allocate_at_leastB8ue170006INS_9allocatorI6EntityEEEENS_19__allocation_resultINS_16allocator_traitsIT_E7pointerEEERS6_m, symObjAddr: 0x3244, symBinAddr: 0x100003910, symSize: 0x40 }
  - { offsetInCU: 0xB0E4, offset: 0xB0E4, size: 0x8, addend: 0x0, symName: __ZNSt3__13minB8ue170006ImEERKT_S3_S3_, symObjAddr: 0x3380, symBinAddr: 0x100003A4C, symSize: 0x2C }
  - { offsetInCU: 0xB328, offset: 0xB328, size: 0x8, addend: 0x0, symName: __ZNSt3__13minB8ue170006ImNS_6__lessIvvEEEERKT_S5_S5_T0_, symObjAddr: 0x33E4, symBinAddr: 0x100003AB0, symSize: 0x54 }
  - { offsetInCU: 0xB3C7, offset: 0xB3C7, size: 0x8, addend: 0x0, symName: __ZNSt3__120__throw_length_errorB8ue170006EPKc, symObjAddr: 0x3488, symBinAddr: 0x100003B54, symSize: 0x64 }
  - { offsetInCU: 0xB3F1, offset: 0xB3F1, size: 0x8, addend: 0x0, symName: __ZNSt3__117__libcpp_allocateB8ue170006Emm, symObjAddr: 0x35F8, symBinAddr: 0x100003CC4, symSize: 0x28 }
  - { offsetInCU: 0xB42E, offset: 0xB42E, size: 0x8, addend: 0x0, symName: __ZNSt3__121__libcpp_operator_newB8ue170006IJmEEEPvDpT_, symObjAddr: 0x3620, symBinAddr: 0x100003CEC, symSize: 0x24 }
  - { offsetInCU: 0xB467, offset: 0xB467, size: 0x8, addend: 0x0, symName: __ZNSt3__112__to_addressB8ue170006I6EntityEEPT_S3_, symObjAddr: 0x373C, symBinAddr: 0x100003E08, symSize: 0x14 }
  - { offsetInCU: 0xB49C, offset: 0xB49C, size: 0x8, addend: 0x0, symName: __ZNSt3__130__uninitialized_allocator_copyB8ue170006INS_9allocatorI6EntityEEPS2_S4_S4_EET2_RT_T0_T1_S5_, symObjAddr: 0x37EC, symBinAddr: 0x100003EB8, symSize: 0x80 }
  - { offsetInCU: 0xB539, offset: 0xB539, size: 0x8, addend: 0x0, symName: __ZNSt3__114__unwrap_rangeB8ue170006IP6EntityS2_EENS_4pairIT0_S4_EET_S6_, symObjAddr: 0x38DC, symBinAddr: 0x100003FA8, symSize: 0x60 }
  - { offsetInCU: 0xB585, offset: 0xB585, size: 0x8, addend: 0x0, symName: __ZNSt3__135__uninitialized_allocator_copy_implB8ue170006INS_9allocatorI6EntityEES2_S2_S2_LPv0EEEPT2_RT_PT0_SA_S6_, symObjAddr: 0x393C, symBinAddr: 0x100004008, symSize: 0x38 }
  - { offsetInCU: 0xB606, offset: 0xB606, size: 0x8, addend: 0x0, symName: __ZNSt3__113__unwrap_iterB8ue170006IP6EntityNS_18__unwrap_iter_implIS2_Lb1EEELi0EEEDTclsrT0_8__unwrapclsr3stdE7declvalIT_EEEES6_, symObjAddr: 0x3974, symBinAddr: 0x100004040, symSize: 0x24 }
  - { offsetInCU: 0xB64A, offset: 0xB64A, size: 0x8, addend: 0x0, symName: __ZNSt3__113__rewrap_iterB8ue170006IP6EntityS2_NS_18__unwrap_iter_implIS2_Lb1EEEEET_S5_T0_, symObjAddr: 0x3998, symBinAddr: 0x100004064, symSize: 0x3C }
  - { offsetInCU: 0xB69F, offset: 0xB69F, size: 0x8, addend: 0x0, symName: __ZNSt3__19make_pairB8ue170006IP6EntityS2_EENS_4pairINS_18__unwrap_ref_decayIT_E4typeENS4_IT0_E4typeEEEOS5_OS8_, symObjAddr: 0x39D4, symBinAddr: 0x1000040A0, symSize: 0x38 }
  - { offsetInCU: 0xB7F1, offset: 0xB7F1, size: 0x8, addend: 0x0, symName: __ZNSt3__14copyB8ue170006IP6EntityS2_EET0_T_S4_S3_, symObjAddr: 0x3A7C, symBinAddr: 0x100004148, symSize: 0x40 }
  - { offsetInCU: 0xB84B, offset: 0xB84B, size: 0x8, addend: 0x0, symName: __ZNSt3__16__copyB8ue170006INS_17_ClassicAlgPolicyEP6EntityS3_S3_EENS_4pairIT0_T2_EES5_T1_S6_, symObjAddr: 0x3ABC, symBinAddr: 0x100004188, symSize: 0x44 }
  - { offsetInCU: 0xB8B7, offset: 0xB8B7, size: 0x8, addend: 0x0, symName: __ZNSt3__123__dispatch_copy_or_moveB8ue170006INS_17_ClassicAlgPolicyENS_11__copy_loopIS1_EENS_14__copy_trivialEP6EntityS6_S6_EENS_4pairIT2_T4_EES8_T3_S9_, symObjAddr: 0x3B00, symBinAddr: 0x1000041CC, symSize: 0x44 }
  - { offsetInCU: 0xB935, offset: 0xB935, size: 0x8, addend: 0x0, symName: __ZNSt3__121__unwrap_and_dispatchB8ue170006INS_10__overloadINS_11__copy_loopINS_17_ClassicAlgPolicyEEENS_14__copy_trivialEEEP6EntityS8_S8_Li0EEENS_4pairIT0_T2_EESA_T1_SB_, symObjAddr: 0x3B44, symBinAddr: 0x100004210, symSize: 0xB4 }
  - { offsetInCU: 0xBA09, offset: 0xBA09, size: 0x8, addend: 0x0, symName: __ZNSt3__114__rewrap_rangeB8ue170006IP6EntityS2_EET_S3_T0_, symObjAddr: 0x3C40, symBinAddr: 0x10000430C, symSize: 0x2C }
  - { offsetInCU: 0xBA55, offset: 0xBA55, size: 0x8, addend: 0x0, symName: __ZNSt3__119__copy_trivial_implB8ue170006I6EntityS1_EENS_4pairIPT_PT0_EES4_S4_S6_, symObjAddr: 0x3C6C, symBinAddr: 0x100004338, symSize: 0x80 }
  - { offsetInCU: 0xBABD, offset: 0xBABD, size: 0x8, addend: 0x0, symName: __ZNSt3__119__constexpr_memmoveB8ue170006I6EntityS1_Li0EEEPT_S3_PT0_NS_15__element_countE, symObjAddr: 0x3CEC, symBinAddr: 0x1000043B8, symSize: 0x64 }
  - { offsetInCU: 0xBB2B, offset: 0xBB2B, size: 0x8, addend: 0x0, symName: __ZNSt3__19make_pairB8ue170006IRP6EntityS2_EENS_4pairINS_18__unwrap_ref_decayIT_E4typeENS5_IT0_E4typeEEEOS6_OS9_, symObjAddr: 0x3D50, symBinAddr: 0x10000441C, symSize: 0x38 }
  - { offsetInCU: 0xBBCD, offset: 0xBBCD, size: 0x8, addend: 0x0, symName: __ZNSt3__13maxB8ue170006ImEERKT_S3_S3_, symObjAddr: 0x42A0, symBinAddr: 0x10000496C, symSize: 0x2C }
  - { offsetInCU: 0xBC10, offset: 0xBC10, size: 0x8, addend: 0x0, symName: __ZNSt3__13maxB8ue170006ImNS_6__lessIvvEEEERKT_S5_S5_T0_, symObjAddr: 0x43C8, symBinAddr: 0x100004A94, symSize: 0x54 }
  - { offsetInCU: 0xBC6A, offset: 0xBC6A, size: 0x8, addend: 0x0, symName: __ZNSt3__119__allocate_at_leastB8ue170006INS_9allocatorINS_6vectorI6EntityNS1_IS3_EEEEEEEENS_19__allocation_resultINS_16allocator_traitsIT_E7pointerEEERS9_m, symObjAddr: 0x4538, symBinAddr: 0x100004C04, symSize: 0x40 }
  - { offsetInCU: 0xBCAD, offset: 0xBCAD, size: 0x8, addend: 0x0, symName: __ZNSt3__142__uninitialized_allocator_move_if_noexceptB8ue170006INS_9allocatorINS_6vectorI6EntityNS1_IS3_EEEEEENS_16reverse_iteratorIPS5_EES9_S9_EET2_RT_T0_T1_SA_, symObjAddr: 0x4898, symBinAddr: 0x100004F64, symSize: 0x12C }
  - { offsetInCU: 0xBD4D, offset: 0xBD4D, size: 0x8, addend: 0x0, symName: __ZNSt3__14swapB8ue170006IPNS_6vectorI6EntityNS_9allocatorIS2_EEEEEENS_9enable_ifIXaasr21is_move_constructibleIT_EE5valuesr18is_move_assignableIS8_EE5valueEvE4typeERS8_SB_, symObjAddr: 0x4A10, symBinAddr: 0x1000050DC, symSize: 0x3C }
  - { offsetInCU: 0xBD9E, offset: 0xBD9E, size: 0x8, addend: 0x0, symName: __ZNSt3__122__make_exception_guardB8ue170006INS_29_AllocatorDestroyRangeReverseINS_9allocatorINS_6vectorI6EntityNS2_IS4_EEEEEENS_16reverse_iteratorIPS6_EEEEEENS_28__exception_guard_exceptionsIT_EESD_, symObjAddr: 0x4B5C, symBinAddr: 0x100005228, symSize: 0x4C }
  - { offsetInCU: 0xBDD4, offset: 0xBDD4, size: 0x8, addend: 0x0, symName: __ZNSt3__1neB8ue170006IPNS_6vectorI6EntityNS_9allocatorIS2_EEEES6_EEbRKNS_16reverse_iteratorIT_EERKNS7_IT0_EE, symObjAddr: 0x4BEC, symBinAddr: 0x1000052B8, symSize: 0x48 }
  - { offsetInCU: 0xBE20, offset: 0xBE20, size: 0x8, addend: 0x0, symName: __ZNSt3__112__to_addressB8ue170006INS_16reverse_iteratorIPNS_6vectorI6EntityNS_9allocatorIS3_EEEEEEvEEu7__decayIDTclsr19__to_address_helperIT_EE6__callclsr3stdE7declvalIRKS9_EEEEESB_, symObjAddr: 0x4C68, symBinAddr: 0x100005334, symSize: 0x24 }
  - { offsetInCU: 0xBE7F, offset: 0xBE7F, size: 0x8, addend: 0x0, symName: __ZNSt3__119__allocator_destroyB8ue170006INS_9allocatorINS_6vectorI6EntityNS1_IS3_EEEEEENS_16reverse_iteratorINS7_IPS5_EEEESA_EEvRT_T0_T1_, symObjAddr: 0x5040, symBinAddr: 0x10000570C, symSize: 0x70 }
  - { offsetInCU: 0xBEE4, offset: 0xBEE4, size: 0x8, addend: 0x0, symName: __ZNSt3__1neB8ue170006INS_16reverse_iteratorIPNS_6vectorI6EntityNS_9allocatorIS3_EEEEEES8_EEbRKNS1_IT_EERKNS1_IT0_EE, symObjAddr: 0x50EC, symBinAddr: 0x1000057B8, symSize: 0x60 }
  - { offsetInCU: 0xBF30, offset: 0xBF30, size: 0x8, addend: 0x0, symName: __ZNSt3__112__to_addressB8ue170006INS_16reverse_iteratorINS1_IPNS_6vectorI6EntityNS_9allocatorIS3_EEEEEEEEvEEu7__decayIDTclsr19__to_address_helperIT_EE6__callclsr3stdE7declvalIRKSA_EEEEESC_, symObjAddr: 0x5178, symBinAddr: 0x100005844, symSize: 0x24 }
  - { offsetInCU: 0xCD36, offset: 0xCD36, size: 0x8, addend: 0x0, symName: __ZNSt3__14endlB8ue170006IcNS_11char_traitsIcEEEERNS_13basic_ostreamIT_T0_EES7_, symObjAddr: 0x5D20, symBinAddr: 0x1000063EC, symSize: 0x58 }
  - { offsetInCU: 0xCD76, offset: 0xCD76, size: 0x8, addend: 0x0, symName: __ZNSt3__17getlineB8ue170006IcNS_11char_traitsIcEENS_9allocatorIcEEEERNS_13basic_istreamIT_T0_EES9_RNS_12basic_stringIS6_S7_T1_EE, symObjAddr: 0x5DA4, symBinAddr: 0x100006470, symSize: 0x5C }
  - { offsetInCU: 0xCDD9, offset: 0xCDD9, size: 0x8, addend: 0x0, symName: __ZNSt3__19use_facetB8ue170006INS_5ctypeIcEEEERKT_RKNS_6localeE, symObjAddr: 0x60E8, symBinAddr: 0x1000067B4, symSize: 0x2C }
  - { offsetInCU: 0xD2A6, offset: 0xD2A6, size: 0x8, addend: 0x0, symName: __ZNSt3__17getlineB8ue170006IcNS_11char_traitsIcEENS_9allocatorIcEEEERNS_13basic_istreamIT_T0_EES9_RNS_12basic_stringIS6_S7_T1_EES6_, symObjAddr: 0x620C, symBinAddr: 0x1000068D8, symSize: 0x238 }
  - { offsetInCU: 0xD599, offset: 0xD599, size: 0x8, addend: 0x0, symName: __ZNSt3__1neB8ue170006IPNS_6vectorI6EntityNS_9allocatorIS2_EEEEEEbRKNS_11__wrap_iterIT_EESB_, symObjAddr: 0x6B9C, symBinAddr: 0x100007268, symSize: 0x34 }
  - { offsetInCU: 0xD5DC, offset: 0xD5DC, size: 0x8, addend: 0x0, symName: __ZNSt3__1neB8ue170006IPK6EntityEEbRKNS_11__wrap_iterIT_EES8_, symObjAddr: 0x6C48, symBinAddr: 0x100007314, symSize: 0x34 }
  - { offsetInCU: 0xD61F, offset: 0xD61F, size: 0x8, addend: 0x0, symName: __ZNSt3__1eqB8ue170006IPNS_6vectorI6EntityNS_9allocatorIS2_EEEEEEbRKNS_11__wrap_iterIT_EESB_, symObjAddr: 0x6D58, symBinAddr: 0x100007424, symSize: 0x48 }
  - { offsetInCU: 0xD662, offset: 0xD662, size: 0x8, addend: 0x0, symName: __ZNSt3__1eqB8ue170006IPK6EntityEEbRKNS_11__wrap_iterIT_EES8_, symObjAddr: 0x6E3C, symBinAddr: 0x100007508, symSize: 0x48 }
  - { offsetInCU: 0xD6C9, offset: 0xD6C9, size: 0x8, addend: 0x0, symName: __ZNSt3__116__pad_and_outputB8ue170006IcNS_11char_traitsIcEEEENS_19ostreambuf_iteratorIT_T0_EES6_PKS4_S8_S8_RNS_8ios_baseES4_, symObjAddr: 0x75C8, symBinAddr: 0x100007C94, symSize: 0x240 }
  - { offsetInCU: 0xD798, offset: 0xD798, size: 0x8, addend: 0x0, symName: __ZNSt3__112__to_addressB8ue170006IKcEEPT_S3_, symObjAddr: 0x7A0C, symBinAddr: 0x1000080D8, symSize: 0x14 }
  - { offsetInCU: 0xDC59, offset: 0xDC59, size: 0x8, addend: 0x0, symName: __ZNSt3__14swapB8ue170006IPPNS_4pairIiiEEEENS_9enable_ifIXaasr21is_move_constructibleIT_EE5valuesr18is_move_assignableIS6_EE5valueEvE4typeERS6_S9_, symObjAddr: 0x8E1C, symBinAddr: 0x1000094E8, symSize: 0x3C }
  - { offsetInCU: 0xDCAA, offset: 0xDCAA, size: 0x8, addend: 0x0, symName: __ZNSt3__14moveB8ue170006IPPNS_4pairIiiEES4_EET0_T_S6_S5_, symObjAddr: 0x8F00, symBinAddr: 0x1000095CC, symSize: 0x40 }
  - { offsetInCU: 0xDD20, offset: 0xDD20, size: 0x8, addend: 0x0, symName: __ZNSt3__16__moveB8ue170006INS_17_ClassicAlgPolicyEPPNS_4pairIiiEES5_S5_EENS2_IT0_T2_EES6_T1_S7_, symObjAddr: 0x9008, symBinAddr: 0x1000096D4, symSize: 0x44 }
  - { offsetInCU: 0xDD8C, offset: 0xDD8C, size: 0x8, addend: 0x0, symName: __ZNSt3__123__dispatch_copy_or_moveB8ue170006INS_17_ClassicAlgPolicyENS_11__move_loopIS1_EENS_14__move_trivialEPPNS_4pairIiiEES8_S8_EENS5_IT2_T4_EES9_T3_SA_, symObjAddr: 0x904C, symBinAddr: 0x100009718, symSize: 0x44 }
  - { offsetInCU: 0xDE0A, offset: 0xDE0A, size: 0x8, addend: 0x0, symName: __ZNSt3__121__unwrap_and_dispatchB8ue170006INS_10__overloadINS_11__move_loopINS_17_ClassicAlgPolicyEEENS_14__move_trivialEEEPPNS_4pairIiiEESA_SA_Li0EEENS7_IT0_T2_EESB_T1_SC_, symObjAddr: 0x9090, symBinAddr: 0x10000975C, symSize: 0xB4 }
  - { offsetInCU: 0xDE98, offset: 0xDE98, size: 0x8, addend: 0x0, symName: __ZNSt3__114__unwrap_rangeB8ue170006IPPNS_4pairIiiEES4_EENS1_IT0_S5_EET_S7_, symObjAddr: 0x9144, symBinAddr: 0x100009810, symSize: 0x60 }
  - { offsetInCU: 0xE05C, offset: 0xE05C, size: 0x8, addend: 0x0, symName: __ZNSt3__113__unwrap_iterB8ue170006IPPNS_4pairIiiEENS_18__unwrap_iter_implIS4_Lb1EEELi0EEEDTclsrT0_8__unwrapclsr3stdE7declvalIT_EEEES8_, symObjAddr: 0x91EC, symBinAddr: 0x1000098B8, symSize: 0x24 }
  - { offsetInCU: 0xE0A0, offset: 0xE0A0, size: 0x8, addend: 0x0, symName: __ZNSt3__19make_pairB8ue170006IPPNS_4pairIiiEES4_EENS1_INS_18__unwrap_ref_decayIT_E4typeENS5_IT0_E4typeEEEOS6_OS9_, symObjAddr: 0x9210, symBinAddr: 0x1000098DC, symSize: 0x38 }
  - { offsetInCU: 0xE0EF, offset: 0xE0EF, size: 0x8, addend: 0x0, symName: __ZNSt3__114__rewrap_rangeB8ue170006IPPNS_4pairIiiEES4_EET_S5_T0_, symObjAddr: 0x9248, symBinAddr: 0x100009914, symSize: 0x2C }
  - { offsetInCU: 0xE13B, offset: 0xE13B, size: 0x8, addend: 0x0, symName: __ZNSt3__113__rewrap_iterB8ue170006IPPNS_4pairIiiEES4_NS_18__unwrap_iter_implIS4_Lb1EEEEET_S7_T0_, symObjAddr: 0x9274, symBinAddr: 0x100009940, symSize: 0x3C }
  - { offsetInCU: 0xE190, offset: 0xE190, size: 0x8, addend: 0x0, symName: __ZNSt3__119__copy_trivial_implB8ue170006IPNS_4pairIiiEES3_EENS1_IPT_PT0_EES5_S5_S7_, symObjAddr: 0x92B0, symBinAddr: 0x10000997C, symSize: 0x80 }
  - { offsetInCU: 0xE1F8, offset: 0xE1F8, size: 0x8, addend: 0x0, symName: __ZNSt3__119__constexpr_memmoveB8ue170006IPNS_4pairIiiEES3_Li0EEEPT_S5_PT0_NS_15__element_countE, symObjAddr: 0x9330, symBinAddr: 0x1000099FC, symSize: 0x64 }
  - { offsetInCU: 0xE266, offset: 0xE266, size: 0x8, addend: 0x0, symName: __ZNSt3__19make_pairB8ue170006IRPPNS_4pairIiiEES4_EENS1_INS_18__unwrap_ref_decayIT_E4typeENS6_IT0_E4typeEEEOS7_OSA_, symObjAddr: 0x9394, symBinAddr: 0x100009A60, symSize: 0x38 }
  - { offsetInCU: 0xE308, offset: 0xE308, size: 0x8, addend: 0x0, symName: __ZNSt3__18distanceB8ue170006INS_13move_iteratorIPPNS_4pairIiiEEEEEENS_15iterator_traitsIT_E15difference_typeES8_S8_, symObjAddr: 0x95FC, symBinAddr: 0x100009CC8, symSize: 0x3C }
  - { offsetInCU: 0xE34B, offset: 0xE34B, size: 0x8, addend: 0x0, symName: __ZNSt3__110__distanceB8ue170006INS_13move_iteratorIPPNS_4pairIiiEEEEEENS_15iterator_traitsIT_E15difference_typeES8_S8_NS_26random_access_iterator_tagE, symObjAddr: 0x9800, symBinAddr: 0x100009ECC, symSize: 0x30 }
  - { offsetInCU: 0xE398, offset: 0xE398, size: 0x8, addend: 0x0, symName: __ZNSt3__1miB8ue170006IPPNS_4pairIiiEES4_EEDTmicldtfp_4baseEcldtfp0_4baseEERKNS_13move_iteratorIT_EERKNS6_IT0_EE, symObjAddr: 0x9830, symBinAddr: 0x100009EFC, symSize: 0x48 }
  - { offsetInCU: 0xE3E7, offset: 0xE3E7, size: 0x8, addend: 0x0, symName: __ZNSt3__113move_backwardB8ue170006IPPNS_4pairIiiEES4_EET0_T_S6_S5_, symObjAddr: 0x9968, symBinAddr: 0x10000A034, symSize: 0x40 }
  - { offsetInCU: 0xE441, offset: 0xE441, size: 0x8, addend: 0x0, symName: __ZNSt3__115__move_backwardB8ue170006INS_17_ClassicAlgPolicyEPPNS_4pairIiiEES5_S5_EENS2_IT0_T2_EES6_T1_S7_, symObjAddr: 0x99A8, symBinAddr: 0x10000A074, symSize: 0x44 }
  - { offsetInCU: 0xE4AD, offset: 0xE4AD, size: 0x8, addend: 0x0, symName: __ZNSt3__123__dispatch_copy_or_moveB8ue170006INS_17_ClassicAlgPolicyENS_20__move_backward_loopIS1_EENS_23__move_backward_trivialEPPNS_4pairIiiEES8_S8_EENS5_IT2_T4_EES9_T3_SA_, symObjAddr: 0x99EC, symBinAddr: 0x10000A0B8, symSize: 0x44 }
  - { offsetInCU: 0xE52B, offset: 0xE52B, size: 0x8, addend: 0x0, symName: __ZNSt3__121__unwrap_and_dispatchB8ue170006INS_10__overloadINS_20__move_backward_loopINS_17_ClassicAlgPolicyEEENS_23__move_backward_trivialEEEPPNS_4pairIiiEESA_SA_Li0EEENS7_IT0_T2_EESB_T1_SC_, symObjAddr: 0x9A30, symBinAddr: 0x10000A0FC, symSize: 0xB4 }
  - { offsetInCU: 0xE5FF, offset: 0xE5FF, size: 0x8, addend: 0x0, symName: __ZNSt3__128__copy_backward_trivial_implB8ue170006IPNS_4pairIiiEES3_EENS1_IPT_PT0_EES5_S5_S7_, symObjAddr: 0x9B2C, symBinAddr: 0x10000A1F8, symSize: 0x90 }
  - { offsetInCU: 0xE667, offset: 0xE667, size: 0x8, addend: 0x0, symName: __ZNSt3__19make_pairB8ue170006IRPPNS_4pairIiiEES5_EENS1_INS_18__unwrap_ref_decayIT_E4typeENS6_IT0_E4typeEEEOS7_OSA_, symObjAddr: 0x9BBC, symBinAddr: 0x10000A288, symSize: 0x38 }
  - { offsetInCU: 0xE6B6, offset: 0xE6B6, size: 0x8, addend: 0x0, symName: __ZNSt3__119__allocate_at_leastB8ue170006INS_9allocatorIPNS_4pairIiiEEEEEENS_19__allocation_resultINS_16allocator_traitsIT_E7pointerEEERS8_m, symObjAddr: 0x9D74, symBinAddr: 0x10000A440, symSize: 0x40 }
  - { offsetInCU: 0xEB24, offset: 0xEB24, size: 0x8, addend: 0x0, symName: __ZSt28__throw_bad_array_new_lengthB8ue170006v, symObjAddr: 0x35C4, symBinAddr: 0x100003C90, symSize: 0x34 }
  - { offsetInCU: 0xED59, offset: 0xED59, size: 0x8, addend: 0x0, symName: _gen, symObjAddr: 0x5BB60, symBinAddr: 0x100010028, symSize: 0x0 }
  - { offsetInCU: 0xED92, offset: 0xED92, size: 0x8, addend: 0x0, symName: _dist, symObjAddr: 0x5C528, symBinAddr: 0x1000109F0, symSize: 0x0 }
  - { offsetInCU: 0xEDCA, offset: 0xEDCA, size: 0x8, addend: 0x0, symName: _searchQueue, symObjAddr: 0x5C530, symBinAddr: 0x1000109F8, symSize: 0x0 }
  - { offsetInCU: 0xF00A, offset: 0xF00A, size: 0x8, addend: 0x0, symName: _dx, symObjAddr: 0xADE4, symBinAddr: 0x100010000, symSize: 0x0 }
  - { offsetInCU: 0xF02B, offset: 0xF02B, size: 0x8, addend: 0x0, symName: _dy, symObjAddr: 0xADF4, symBinAddr: 0x100010010, symSize: 0x0 }
  - { offsetInCU: 0xF040, offset: 0xF040, size: 0x8, addend: 0x0, symName: _flag, symObjAddr: 0x5C560, symBinAddr: 0x100010A28, symSize: 0x0 }
  - { offsetInCU: 0xF067, offset: 0xF067, size: 0x8, addend: 0x0, symName: _ff, symObjAddr: 0x5C5F0, symBinAddr: 0x100010AB8, symSize: 0x0 }
  - { offsetInCU: 0xF49C, offset: 0xF49C, size: 0x8, addend: 0x0, symName: __ZNSt3__16vectorINS0_I6EntityNS_9allocatorIS1_EEEENS2_IS4_EEE26__swap_out_circular_bufferERNS_14__split_bufferIS4_RS5_EE, symObjAddr: 0x29F0, symBinAddr: 0x1000030BC, symSize: 0x110 }
  - { offsetInCU: 0x119EA, offset: 0x119EA, size: 0x8, addend: 0x0, symName: __ZNSt3__113random_deviceC1B8ue170006Ev, symObjAddr: 0x0, symBinAddr: 0x1000006CC, symSize: 0x74 }
  - { offsetInCU: 0x11A14, offset: 0x11A14, size: 0x8, addend: 0x0, symName: __ZNSt3__123mersenne_twister_engineIjLm32ELm624ELm397ELm31ELj2567483615ELm11ELj4294967295ELm7ELj2636928640ELm15ELj4022730752ELm18ELj1812433253EEC1B8ue170006Ej, symObjAddr: 0x74, symBinAddr: 0x100000740, symSize: 0x34 }
  - { offsetInCU: 0x11A4C, offset: 0x11A4C, size: 0x8, addend: 0x0, symName: __ZNSt3__124uniform_int_distributionIiEC1B8ue170006Eii, symObjAddr: 0xA8, symBinAddr: 0x100000774, symSize: 0x3C }
  - { offsetInCU: 0x11A92, offset: 0x11A92, size: 0x8, addend: 0x0, symName: __ZNSt3__15queueINS_4pairIiiEENS_5dequeIS2_NS_9allocatorIS2_EEEEEC1B8ue170006Ev, symObjAddr: 0xE4, symBinAddr: 0x1000007B0, symSize: 0x2C }
  - { offsetInCU: 0x11ABC, offset: 0x11ABC, size: 0x8, addend: 0x0, symName: __ZNSt3__15queueINS_4pairIiiEENS_5dequeIS2_NS_9allocatorIS2_EEEEED1Ev, symObjAddr: 0x110, symBinAddr: 0x1000007DC, symSize: 0x2C }
  - { offsetInCU: 0x11AE9, offset: 0x11AE9, size: 0x8, addend: 0x0, symName: __Z8setcolor6Entity, symObjAddr: 0x13C, symBinAddr: 0x100000808, symSize: 0xD4 }
  - { offsetInCU: 0x11B12, offset: 0x11B12, size: 0x8, addend: 0x0, symName: _main, symObjAddr: 0x284, symBinAddr: 0x100000950, symSize: 0x364 }
  - { offsetInCU: 0x11C23, offset: 0x11C23, size: 0x8, addend: 0x0, symName: __ZN3MapC1Eii, symObjAddr: 0x5E8, symBinAddr: 0x100000CB4, symSize: 0x3C }
  - { offsetInCU: 0x11C69, offset: 0x11C69, size: 0x8, addend: 0x0, symName: __ZN3Map4ReadEv, symObjAddr: 0x624, symBinAddr: 0x100000CF0, symSize: 0x2E8 }
  - { offsetInCU: 0x11CD5, offset: 0x11CD5, size: 0x8, addend: 0x0, symName: __ZN3Map8printMapEv, symObjAddr: 0x90C, symBinAddr: 0x100000FD8, symSize: 0x104 }
  - { offsetInCU: 0x11DA6, offset: 0x11DA6, size: 0x8, addend: 0x0, symName: __ZNSt3__15queueINS_4pairIiiEENS_5dequeIS2_NS_9allocatorIS2_EEEEE7emplaceB8ue170006IJiiEEEvDpOT_, symObjAddr: 0xA10, symBinAddr: 0x1000010DC, symSize: 0x34 }
  - { offsetInCU: 0x11DFA, offset: 0x11DFA, size: 0x8, addend: 0x0, symName: __ZNSt3__16vectorINS0_I6EntityNS_9allocatorIS1_EEEENS2_IS4_EEEixB8ue170006Em, symObjAddr: 0xA44, symBinAddr: 0x100001110, symSize: 0x2C }
  - { offsetInCU: 0x11E31, offset: 0x11E31, size: 0x8, addend: 0x0, symName: __ZNSt3__16vectorI6EntityNS_9allocatorIS1_EEEixB8ue170006Em, symObjAddr: 0xA70, symBinAddr: 0x10000113C, symSize: 0x24 }
  - { offsetInCU: 0x11E68, offset: 0x11E68, size: 0x8, addend: 0x0, symName: __ZNKSt3__15queueINS_4pairIiiEENS_5dequeIS2_NS_9allocatorIS2_EEEEE5emptyB8ue170006Ev, symObjAddr: 0xA94, symBinAddr: 0x100001160, symSize: 0x28 }
  - { offsetInCU: 0x11E8E, offset: 0x11E8E, size: 0x8, addend: 0x0, symName: __ZNSt3__15queueINS_4pairIiiEENS_5dequeIS2_NS_9allocatorIS2_EEEEE5frontB8ue170006Ev, symObjAddr: 0xABC, symBinAddr: 0x100001188, symSize: 0x24 }
  - { offsetInCU: 0x11EB4, offset: 0x11EB4, size: 0x8, addend: 0x0, symName: __ZNSt3__15queueINS_4pairIiiEENS_5dequeIS2_NS_9allocatorIS2_EEEEE3popB8ue170006Ev, symObjAddr: 0xAE0, symBinAddr: 0x1000011AC, symSize: 0x24 }
  - { offsetInCU: 0x11EDF, offset: 0x11EDF, size: 0x8, addend: 0x0, symName: __ZNSt3__15queueINS_4pairIiiEENS_5dequeIS2_NS_9allocatorIS2_EEEEE7emplaceB8ue170006IJRiS9_EEEvDpOT_, symObjAddr: 0xB04, symBinAddr: 0x1000011D0, symSize: 0x34 }
  - { offsetInCU: 0x11F33, offset: 0x11F33, size: 0x8, addend: 0x0, symName: __ZN3MapD1Ev, symObjAddr: 0xB38, symBinAddr: 0x100001204, symSize: 0x2C }
  - { offsetInCU: 0x11F64, offset: 0x11F64, size: 0x8, addend: 0x0, symName: __ZNSt3__112basic_stringIcNS_11char_traitsIcEENS_9allocatorIcEEEC1B8ue170006ILi0EEEPKc, symObjAddr: 0xB64, symBinAddr: 0x100001230, symSize: 0x34 }
  - { offsetInCU: 0x11FA3, offset: 0x11FA3, size: 0x8, addend: 0x0, symName: __ZNSt3__112basic_stringIcNS_11char_traitsIcEENS_9allocatorIcEEEC2B8ue170006ILi0EEEPKc, symObjAddr: 0xB98, symBinAddr: 0x100001264, symSize: 0x58 }
  - { offsetInCU: 0x11FE7, offset: 0x11FE7, size: 0x8, addend: 0x0, symName: __ZNSt3__117__compressed_pairINS_12basic_stringIcNS_11char_traitsIcEENS_9allocatorIcEEE5__repES5_EC1B8ue170006INS_18__default_init_tagESA_EEOT_OT0_, symObjAddr: 0xBF0, symBinAddr: 0x1000012BC, symSize: 0x3C }
  - { offsetInCU: 0x1203F, offset: 0x1203F, size: 0x8, addend: 0x0, symName: __ZNSt3__111char_traitsIcE6lengthB8ue170006EPKc, symObjAddr: 0xC2C, symBinAddr: 0x1000012F8, symSize: 0x34 }
  - { offsetInCU: 0x12062, offset: 0x12062, size: 0x8, addend: 0x0, symName: __ZNSt3__117__compressed_pairINS_12basic_stringIcNS_11char_traitsIcEENS_9allocatorIcEEE5__repES5_EC2B8ue170006INS_18__default_init_tagESA_EEOT_OT0_, symObjAddr: 0xC60, symBinAddr: 0x10000132C, symSize: 0x3C }
  - { offsetInCU: 0x120BA, offset: 0x120BA, size: 0x8, addend: 0x0, symName: __ZNSt3__122__compressed_pair_elemINS_12basic_stringIcNS_11char_traitsIcEENS_9allocatorIcEEE5__repELi0ELb0EEC2B8ue170006ENS_18__default_init_tagE, symObjAddr: 0xC9C, symBinAddr: 0x100001368, symSize: 0x14 }
  - { offsetInCU: 0x120EE, offset: 0x120EE, size: 0x8, addend: 0x0, symName: __ZNSt3__122__compressed_pair_elemINS_9allocatorIcEELi1ELb1EEC2B8ue170006ENS_18__default_init_tagE, symObjAddr: 0xCB0, symBinAddr: 0x10000137C, symSize: 0x2C }
  - { offsetInCU: 0x12122, offset: 0x12122, size: 0x8, addend: 0x0, symName: __ZNSt3__19allocatorIcEC2B8ue170006Ev, symObjAddr: 0xCDC, symBinAddr: 0x1000013A8, symSize: 0x2C }
  - { offsetInCU: 0x1214C, offset: 0x1214C, size: 0x8, addend: 0x0, symName: __ZNSt3__116__non_trivial_ifILb1ENS_9allocatorIcEEEC2B8ue170006Ev, symObjAddr: 0xD08, symBinAddr: 0x1000013D4, symSize: 0x14 }
  - { offsetInCU: 0x12176, offset: 0x12176, size: 0x8, addend: 0x0, symName: __ZNSt3__15queueINS_4pairIiiEENS_5dequeIS2_NS_9allocatorIS2_EEEEED2Ev, symObjAddr: 0xD4C, symBinAddr: 0x100001418, symSize: 0x2C }
  - { offsetInCU: 0x121A3, offset: 0x121A3, size: 0x8, addend: 0x0, symName: __ZNSt3__15dequeINS_4pairIiiEENS_9allocatorIS2_EEED1B8ue170006Ev, symObjAddr: 0xD78, symBinAddr: 0x100001444, symSize: 0x2C }
  - { offsetInCU: 0x121CD, offset: 0x121CD, size: 0x8, addend: 0x0, symName: __ZNSt3__15dequeINS_4pairIiiEENS_9allocatorIS2_EEED2B8ue170006Ev, symObjAddr: 0xDA4, symBinAddr: 0x100001470, symSize: 0xA4 }
  - { offsetInCU: 0x12224, offset: 0x12224, size: 0x8, addend: 0x0, symName: __ZNSt3__15dequeINS_4pairIiiEENS_9allocatorIS2_EEE5clearEv, symObjAddr: 0xE48, symBinAddr: 0x100001514, symSize: 0x194 }
  - { offsetInCU: 0x1227F, offset: 0x1227F, size: 0x8, addend: 0x0, symName: __ZNKSt3__15dequeINS_4pairIiiEENS_9allocatorIS2_EEE17__annotate_deleteB8ue170006Ev, symObjAddr: 0xFDC, symBinAddr: 0x1000016A8, symSize: 0xE8 }
  - { offsetInCU: 0x122C3, offset: 0x122C3, size: 0x8, addend: 0x0, symName: __ZNSt3__114__split_bufferIPNS_4pairIiiEENS_9allocatorIS3_EEE5beginB8ue170006Ev, symObjAddr: 0x10C4, symBinAddr: 0x100001790, symSize: 0x18 }
  - { offsetInCU: 0x122E9, offset: 0x122E9, size: 0x8, addend: 0x0, symName: __ZNSt3__114__split_bufferIPNS_4pairIiiEENS_9allocatorIS3_EEE3endB8ue170006Ev, symObjAddr: 0x10DC, symBinAddr: 0x1000017A8, symSize: 0x18 }
  - { offsetInCU: 0x1230F, offset: 0x1230F, size: 0x8, addend: 0x0, symName: __ZNSt3__116allocator_traitsINS_9allocatorINS_4pairIiiEEEEE10deallocateB8ue170006ERS4_PS3_m, symObjAddr: 0x10F4, symBinAddr: 0x1000017C0, symSize: 0x34 }
  - { offsetInCU: 0x12351, offset: 0x12351, size: 0x8, addend: 0x0, symName: __ZNSt3__15dequeINS_4pairIiiEENS_9allocatorIS2_EEE7__allocB8ue170006Ev, symObjAddr: 0x1128, symBinAddr: 0x1000017F4, symSize: 0x28 }
  - { offsetInCU: 0x12377, offset: 0x12377, size: 0x8, addend: 0x0, symName: __ZNSt3__114__split_bufferIPNS_4pairIiiEENS_9allocatorIS3_EEED1Ev, symObjAddr: 0x1150, symBinAddr: 0x10000181C, symSize: 0x2C }
  - { offsetInCU: 0x123A3, offset: 0x123A3, size: 0x8, addend: 0x0, symName: __ZNSt3__15dequeINS_4pairIiiEENS_9allocatorIS2_EEE5beginB8ue170006Ev, symObjAddr: 0x117C, symBinAddr: 0x100001848, symSize: 0xB8 }
  - { offsetInCU: 0x123D8, offset: 0x123D8, size: 0x8, addend: 0x0, symName: __ZNSt3__15dequeINS_4pairIiiEENS_9allocatorIS2_EEE3endB8ue170006Ev, symObjAddr: 0x1234, symBinAddr: 0x100001900, symSize: 0xBC }
  - { offsetInCU: 0x1241C, offset: 0x1241C, size: 0x8, addend: 0x0, symName: __ZNSt3__116allocator_traitsINS_9allocatorINS_4pairIiiEEEEE7destroyB8ue170006IS3_vEEvRS4_PT_, symObjAddr: 0x1324, symBinAddr: 0x1000019F0, symSize: 0x2C }
  - { offsetInCU: 0x12459, offset: 0x12459, size: 0x8, addend: 0x0, symName: __ZNKSt3__116__deque_iteratorINS_4pairIiiEEPS2_RS2_PS3_lLl512EEdeB8ue170006Ev, symObjAddr: 0x1350, symBinAddr: 0x100001A1C, symSize: 0x18 }
  - { offsetInCU: 0x1247F, offset: 0x1247F, size: 0x8, addend: 0x0, symName: __ZNSt3__116__deque_iteratorINS_4pairIiiEEPS2_RS2_PS3_lLl512EEppB8ue170006Ev, symObjAddr: 0x1368, symBinAddr: 0x100001A34, symSize: 0x70 }
  - { offsetInCU: 0x124A5, offset: 0x124A5, size: 0x8, addend: 0x0, symName: __ZNSt3__15dequeINS_4pairIiiEENS_9allocatorIS2_EEE6__sizeB8ue170006Ev, symObjAddr: 0x13D8, symBinAddr: 0x100001AA4, symSize: 0x28 }
  - { offsetInCU: 0x124CB, offset: 0x124CB, size: 0x8, addend: 0x0, symName: __ZNKSt3__114__split_bufferIPNS_4pairIiiEENS_9allocatorIS3_EEE4sizeB8ue170006Ev, symObjAddr: 0x1400, symBinAddr: 0x100001ACC, symSize: 0x28 }
  - { offsetInCU: 0x124F1, offset: 0x124F1, size: 0x8, addend: 0x0, symName: __ZNSt3__114__split_bufferIPNS_4pairIiiEENS_9allocatorIS3_EEE5frontB8ue170006Ev, symObjAddr: 0x1428, symBinAddr: 0x100001AF4, symSize: 0x18 }
  - { offsetInCU: 0x12517, offset: 0x12517, size: 0x8, addend: 0x0, symName: __ZNSt3__114__split_bufferIPNS_4pairIiiEENS_9allocatorIS3_EEE9pop_frontB8ue170006Ev, symObjAddr: 0x1440, symBinAddr: 0x100001B0C, symSize: 0x2C }
  - { offsetInCU: 0x1253D, offset: 0x1253D, size: 0x8, addend: 0x0, symName: __ZNKSt3__15dequeINS_4pairIiiEENS_9allocatorIS2_EEE14__annotate_newB8ue170006Em, symObjAddr: 0x146C, symBinAddr: 0x100001B38, symSize: 0xB8 }
  - { offsetInCU: 0x12572, offset: 0x12572, size: 0x8, addend: 0x0, symName: __ZNKSt3__114__split_bufferIPNS_4pairIiiEENS_9allocatorIS3_EEE5emptyB8ue170006Ev, symObjAddr: 0x1524, symBinAddr: 0x100001BF0, symSize: 0x28 }
  - { offsetInCU: 0x12598, offset: 0x12598, size: 0x8, addend: 0x0, symName: __ZNSt3__116__deque_iteratorINS_4pairIiiEEPS2_RS2_PS3_lLl512EEC1B8ue170006ES5_S3_, symObjAddr: 0x154C, symBinAddr: 0x100001C18, symSize: 0x3C }
  - { offsetInCU: 0x125E0, offset: 0x125E0, size: 0x8, addend: 0x0, symName: __ZNSt3__116__deque_iteratorINS_4pairIiiEEPS2_RS2_PS3_lLl512EEC2B8ue170006ES5_S3_, symObjAddr: 0x1588, symBinAddr: 0x100001C54, symSize: 0x2C }
  - { offsetInCU: 0x12628, offset: 0x12628, size: 0x8, addend: 0x0, symName: __ZNKSt3__15dequeINS_4pairIiiEENS_9allocatorIS2_EEE4sizeB8ue170006Ev, symObjAddr: 0x15B4, symBinAddr: 0x100001C80, symSize: 0x28 }
  - { offsetInCU: 0x1264E, offset: 0x1264E, size: 0x8, addend: 0x0, symName: __ZNKSt3__15dequeINS_4pairIiiEENS_9allocatorIS2_EEE6__sizeB8ue170006Ev, symObjAddr: 0x15DC, symBinAddr: 0x100001CA8, symSize: 0x28 }
  - { offsetInCU: 0x12674, offset: 0x12674, size: 0x8, addend: 0x0, symName: __ZNKSt3__117__compressed_pairImNS_9allocatorINS_4pairIiiEEEEE5firstB8ue170006Ev, symObjAddr: 0x1604, symBinAddr: 0x100001CD0, symSize: 0x24 }
  - { offsetInCU: 0x1269A, offset: 0x1269A, size: 0x8, addend: 0x0, symName: __ZNKSt3__122__compressed_pair_elemImLi0ELb0EE5__getB8ue170006Ev, symObjAddr: 0x1628, symBinAddr: 0x100001CF4, symSize: 0x14 }
  - { offsetInCU: 0x126C0, offset: 0x126C0, size: 0x8, addend: 0x0, symName: __ZNSt3__19allocatorINS_4pairIiiEEE7destroyB8ue170006EPS2_, symObjAddr: 0x166C, symBinAddr: 0x100001D38, symSize: 0x14 }
  - { offsetInCU: 0x126F4, offset: 0x126F4, size: 0x8, addend: 0x0, symName: __ZNSt3__117__compressed_pairImNS_9allocatorINS_4pairIiiEEEEE5firstB8ue170006Ev, symObjAddr: 0x1680, symBinAddr: 0x100001D4C, symSize: 0x24 }
  - { offsetInCU: 0x1271A, offset: 0x1271A, size: 0x8, addend: 0x0, symName: __ZNSt3__122__compressed_pair_elemImLi0ELb0EE5__getB8ue170006Ev, symObjAddr: 0x16A4, symBinAddr: 0x100001D70, symSize: 0x14 }
  - { offsetInCU: 0x12740, offset: 0x12740, size: 0x8, addend: 0x0, symName: __ZNSt3__114__split_bufferIPNS_4pairIiiEENS_9allocatorIS3_EEE19__destruct_at_beginB8ue170006EPS3_, symObjAddr: 0x16B8, symBinAddr: 0x100001D84, symSize: 0x2C }
  - { offsetInCU: 0x12774, offset: 0x12774, size: 0x8, addend: 0x0, symName: __ZNSt3__114__split_bufferIPNS_4pairIiiEENS_9allocatorIS3_EEE19__destruct_at_beginEPS3_NS_17integral_constantIbLb1EEE, symObjAddr: 0x16E4, symBinAddr: 0x100001DB0, symSize: 0x20 }
  - { offsetInCU: 0x127B4, offset: 0x127B4, size: 0x8, addend: 0x0, symName: __ZNKSt3__15dequeINS_4pairIiiEENS_9allocatorIS2_EEE18__annotate_from_toB8ue170006EmmNS5_22__asan_annotation_typeENS5_23__asan_annotation_placeE, symObjAddr: 0x1704, symBinAddr: 0x100001DD0, symSize: 0x580 }
  - { offsetInCU: 0x12972, offset: 0x12972, size: 0x8, addend: 0x0, symName: __ZNKSt3__114__split_bufferIPNS_4pairIiiEENS_9allocatorIS3_EEE5beginB8ue170006Ev, symObjAddr: 0x1C84, symBinAddr: 0x100002350, symSize: 0x18 }
  - { offsetInCU: 0x12998, offset: 0x12998, size: 0x8, addend: 0x0, symName: __ZNKSt3__15dequeINS_4pairIiiEENS_9allocatorIS2_EEE5emptyB8ue170006Ev, symObjAddr: 0x1C9C, symBinAddr: 0x100002368, symSize: 0x30 }
  - { offsetInCU: 0x129BE, offset: 0x129BE, size: 0x8, addend: 0x0, symName: __ZNKSt3__15dequeINS_4pairIiiEENS_9allocatorIS2_EEE44__annotate_double_ended_contiguous_containerB8ue170006EPKvS7_S7_S7_S7_S7_, symObjAddr: 0x1CE0, symBinAddr: 0x1000023AC, symSize: 0x28 }
  - { offsetInCU: 0x12A26, offset: 0x12A26, size: 0x8, addend: 0x0, symName: __ZNKSt3__15dequeINS_4pairIiiEENS_9allocatorIS2_EEE22__annotate_whole_blockB8ue170006EmNS5_22__asan_annotation_typeE, symObjAddr: 0x1D08, symBinAddr: 0x1000023D4, symSize: 0xAC }
  - { offsetInCU: 0x12A97, offset: 0x12A97, size: 0x8, addend: 0x0, symName: __ZNKSt3__15dequeINS_4pairIiiEENS_9allocatorIS2_EEE23__annotate_poison_blockB8ue170006EPKvS7_, symObjAddr: 0x1DB4, symBinAddr: 0x100002480, symSize: 0x44 }
  - { offsetInCU: 0x12ADB, offset: 0x12ADB, size: 0x8, addend: 0x0, symName: __ZNSt3__19allocatorINS_4pairIiiEEE10deallocateB8ue170006EPS2_m, symObjAddr: 0x1DF8, symBinAddr: 0x1000024C4, symSize: 0x40 }
  - { offsetInCU: 0x12B1D, offset: 0x12B1D, size: 0x8, addend: 0x0, symName: __ZNSt3__117__compressed_pairImNS_9allocatorINS_4pairIiiEEEEE6secondB8ue170006Ev, symObjAddr: 0x1EB4, symBinAddr: 0x100002580, symSize: 0x24 }
  - { offsetInCU: 0x12B43, offset: 0x12B43, size: 0x8, addend: 0x0, symName: __ZNSt3__122__compressed_pair_elemINS_9allocatorINS_4pairIiiEEEELi1ELb1EE5__getB8ue170006Ev, symObjAddr: 0x1ED8, symBinAddr: 0x1000025A4, symSize: 0x14 }
  - { offsetInCU: 0x12B69, offset: 0x12B69, size: 0x8, addend: 0x0, symName: __ZNSt3__114__split_bufferIPNS_4pairIiiEENS_9allocatorIS3_EEED2Ev, symObjAddr: 0x1EEC, symBinAddr: 0x1000025B8, symSize: 0x8C }
  - { offsetInCU: 0x12B95, offset: 0x12B95, size: 0x8, addend: 0x0, symName: __ZNSt3__114__split_bufferIPNS_4pairIiiEENS_9allocatorIS3_EEE5clearB8ue170006Ev, symObjAddr: 0x1F78, symBinAddr: 0x100002644, symSize: 0x28 }
  - { offsetInCU: 0x12BBB, offset: 0x12BBB, size: 0x8, addend: 0x0, symName: __ZNSt3__116allocator_traitsINS_9allocatorIPNS_4pairIiiEEEEE10deallocateB8ue170006ERS5_PS4_m, symObjAddr: 0x1FA0, symBinAddr: 0x10000266C, symSize: 0x34 }
  - { offsetInCU: 0x12BFD, offset: 0x12BFD, size: 0x8, addend: 0x0, symName: __ZNSt3__114__split_bufferIPNS_4pairIiiEENS_9allocatorIS3_EEE7__allocB8ue170006Ev, symObjAddr: 0x1FD4, symBinAddr: 0x1000026A0, symSize: 0x28 }
  - { offsetInCU: 0x12C23, offset: 0x12C23, size: 0x8, addend: 0x0, symName: __ZNKSt3__114__split_bufferIPNS_4pairIiiEENS_9allocatorIS3_EEE8capacityB8ue170006Ev, symObjAddr: 0x1FFC, symBinAddr: 0x1000026C8, symSize: 0x40 }
  - { offsetInCU: 0x12C49, offset: 0x12C49, size: 0x8, addend: 0x0, symName: __ZNSt3__114__split_bufferIPNS_4pairIiiEENS_9allocatorIS3_EEE17__destruct_at_endB8ue170006EPS3_, symObjAddr: 0x203C, symBinAddr: 0x100002708, symSize: 0x2C }
  - { offsetInCU: 0x12C7D, offset: 0x12C7D, size: 0x8, addend: 0x0, symName: __ZNSt3__114__split_bufferIPNS_4pairIiiEENS_9allocatorIS3_EEE17__destruct_at_endB8ue170006EPS3_NS_17integral_constantIbLb0EEE, symObjAddr: 0x2068, symBinAddr: 0x100002734, symSize: 0x80 }
  - { offsetInCU: 0x12CBD, offset: 0x12CBD, size: 0x8, addend: 0x0, symName: __ZNSt3__116allocator_traitsINS_9allocatorIPNS_4pairIiiEEEEE7destroyB8ue170006IS4_vEEvRS5_PT_, symObjAddr: 0x20E8, symBinAddr: 0x1000027B4, symSize: 0x2C }
  - { offsetInCU: 0x12CFA, offset: 0x12CFA, size: 0x8, addend: 0x0, symName: __ZNSt3__19allocatorIPNS_4pairIiiEEE7destroyB8ue170006EPS3_, symObjAddr: 0x2128, symBinAddr: 0x1000027F4, symSize: 0x14 }
  - { offsetInCU: 0x12D2E, offset: 0x12D2E, size: 0x8, addend: 0x0, symName: __ZNSt3__19allocatorIPNS_4pairIiiEEE10deallocateB8ue170006EPS3_m, symObjAddr: 0x213C, symBinAddr: 0x100002808, symSize: 0x40 }
  - { offsetInCU: 0x12D70, offset: 0x12D70, size: 0x8, addend: 0x0, symName: __ZNSt3__117__compressed_pairIPPNS_4pairIiiEENS_9allocatorIS3_EEE6secondB8ue170006Ev, symObjAddr: 0x217C, symBinAddr: 0x100002848, symSize: 0x24 }
  - { offsetInCU: 0x12D96, offset: 0x12D96, size: 0x8, addend: 0x0, symName: __ZNSt3__122__compressed_pair_elemINS_9allocatorIPNS_4pairIiiEEEELi1ELb1EE5__getB8ue170006Ev, symObjAddr: 0x21A0, symBinAddr: 0x10000286C, symSize: 0x14 }
  - { offsetInCU: 0x12DBC, offset: 0x12DBC, size: 0x8, addend: 0x0, symName: __ZNKSt3__114__split_bufferIPNS_4pairIiiEENS_9allocatorIS3_EEE9__end_capB8ue170006Ev, symObjAddr: 0x21B4, symBinAddr: 0x100002880, symSize: 0x28 }
  - { offsetInCU: 0x12DE2, offset: 0x12DE2, size: 0x8, addend: 0x0, symName: __ZNKSt3__117__compressed_pairIPPNS_4pairIiiEENS_9allocatorIS3_EEE5firstB8ue170006Ev, symObjAddr: 0x21DC, symBinAddr: 0x1000028A8, symSize: 0x24 }
  - { offsetInCU: 0x12E08, offset: 0x12E08, size: 0x8, addend: 0x0, symName: __ZNKSt3__122__compressed_pair_elemIPPNS_4pairIiiEELi0ELb0EE5__getB8ue170006Ev, symObjAddr: 0x2200, symBinAddr: 0x1000028CC, symSize: 0x14 }
  - { offsetInCU: 0x12E2E, offset: 0x12E2E, size: 0x8, addend: 0x0, symName: __ZN3MapC2Eii, symObjAddr: 0x2214, symBinAddr: 0x1000028E0, symSize: 0xCC }
  - { offsetInCU: 0x12E74, offset: 0x12E74, size: 0x8, addend: 0x0, symName: __ZNSt3__16vectorINS0_I6EntityNS_9allocatorIS1_EEEENS2_IS4_EEEC1B8ue170006Ev, symObjAddr: 0x22E0, symBinAddr: 0x1000029AC, symSize: 0x2C }
  - { offsetInCU: 0x12E9E, offset: 0x12E9E, size: 0x8, addend: 0x0, symName: __ZNSt3__16vectorINS0_I6EntityNS_9allocatorIS1_EEEENS2_IS4_EEE6resizeEmRKS4_, symObjAddr: 0x230C, symBinAddr: 0x1000029D8, symSize: 0xA4 }
  - { offsetInCU: 0x12EF3, offset: 0x12EF3, size: 0x8, addend: 0x0, symName: __ZNSt3__16vectorI6EntityNS_9allocatorIS1_EEEC1EmRKS1_, symObjAddr: 0x23B0, symBinAddr: 0x100002A7C, symSize: 0x3C }
  - { offsetInCU: 0x12F3D, offset: 0x12F3D, size: 0x8, addend: 0x0, symName: __ZNSt3__16vectorI6EntityNS_9allocatorIS1_EEED1B8ue170006Ev, symObjAddr: 0x23EC, symBinAddr: 0x100002AB8, symSize: 0x2C }
  - { offsetInCU: 0x12F67, offset: 0x12F67, size: 0x8, addend: 0x0, symName: __ZNSt3__16vectorINS0_I6EntityNS_9allocatorIS1_EEEENS2_IS4_EEED1B8ue170006Ev, symObjAddr: 0x2418, symBinAddr: 0x100002AE4, symSize: 0x2C }
  - { offsetInCU: 0x12F91, offset: 0x12F91, size: 0x8, addend: 0x0, symName: __ZNSt3__16vectorINS0_I6EntityNS_9allocatorIS1_EEEENS2_IS4_EEEC2B8ue170006Ev, symObjAddr: 0x2444, symBinAddr: 0x100002B10, symSize: 0x4C }
  - { offsetInCU: 0x12FC0, offset: 0x12FC0, size: 0x8, addend: 0x0, symName: __ZNSt3__117__compressed_pairIPNS_6vectorI6EntityNS_9allocatorIS2_EEEENS3_IS5_EEEC1B8ue170006IDnNS_18__default_init_tagEEEOT_OT0_, symObjAddr: 0x2490, symBinAddr: 0x100002B5C, symSize: 0x3C }
  - { offsetInCU: 0x13018, offset: 0x13018, size: 0x8, addend: 0x0, symName: __ZNSt3__117__compressed_pairIPNS_6vectorI6EntityNS_9allocatorIS2_EEEENS3_IS5_EEEC2B8ue170006IDnNS_18__default_init_tagEEEOT_OT0_, symObjAddr: 0x24CC, symBinAddr: 0x100002B98, symSize: 0x40 }
  - { offsetInCU: 0x13070, offset: 0x13070, size: 0x8, addend: 0x0, symName: __ZNSt3__122__compressed_pair_elemIPNS_6vectorI6EntityNS_9allocatorIS2_EEEELi0ELb0EEC2B8ue170006IDnvEEOT_, symObjAddr: 0x250C, symBinAddr: 0x100002BD8, symSize: 0x1C }
  - { offsetInCU: 0x130B2, offset: 0x130B2, size: 0x8, addend: 0x0, symName: __ZNSt3__122__compressed_pair_elemINS_9allocatorINS_6vectorI6EntityNS1_IS3_EEEEEELi1ELb1EEC2B8ue170006ENS_18__default_init_tagE, symObjAddr: 0x2528, symBinAddr: 0x100002BF4, symSize: 0x2C }
  - { offsetInCU: 0x130E6, offset: 0x130E6, size: 0x8, addend: 0x0, symName: __ZNSt3__19allocatorINS_6vectorI6EntityNS0_IS2_EEEEEC2B8ue170006Ev, symObjAddr: 0x2554, symBinAddr: 0x100002C20, symSize: 0x2C }
  - { offsetInCU: 0x13110, offset: 0x13110, size: 0x8, addend: 0x0, symName: __ZNSt3__116__non_trivial_ifILb1ENS_9allocatorINS_6vectorI6EntityNS1_IS3_EEEEEEEC2B8ue170006Ev, symObjAddr: 0x2580, symBinAddr: 0x100002C4C, symSize: 0x14 }
  - { offsetInCU: 0x1313A, offset: 0x1313A, size: 0x8, addend: 0x0, symName: __ZNKSt3__16vectorINS0_I6EntityNS_9allocatorIS1_EEEENS2_IS4_EEE4sizeB8ue170006Ev, symObjAddr: 0x2594, symBinAddr: 0x100002C60, symSize: 0x28 }
  - { offsetInCU: 0x13160, offset: 0x13160, size: 0x8, addend: 0x0, symName: __ZNSt3__16vectorINS0_I6EntityNS_9allocatorIS1_EEEENS2_IS4_EEE8__appendEmRKS4_, symObjAddr: 0x25BC, symBinAddr: 0x100002C88, symSize: 0x114 }
  - { offsetInCU: 0x131CA, offset: 0x131CA, size: 0x8, addend: 0x0, symName: __ZNSt3__16vectorINS0_I6EntityNS_9allocatorIS1_EEEENS2_IS4_EEE17__destruct_at_endB8ue170006EPS4_, symObjAddr: 0x26D0, symBinAddr: 0x100002D9C, symSize: 0x4C }
  - { offsetInCU: 0x1320E, offset: 0x1320E, size: 0x8, addend: 0x0, symName: __ZNSt3__16vectorINS0_I6EntityNS_9allocatorIS1_EEEENS2_IS4_EEE9__end_capB8ue170006Ev, symObjAddr: 0x271C, symBinAddr: 0x100002DE8, symSize: 0x28 }
  - { offsetInCU: 0x13234, offset: 0x13234, size: 0x8, addend: 0x0, symName: __ZNSt3__16vectorINS0_I6EntityNS_9allocatorIS1_EEEENS2_IS4_EEE18__construct_at_endEmRKS4_, symObjAddr: 0x2744, symBinAddr: 0x100002E10, symSize: 0xD0 }
  - { offsetInCU: 0x132B6, offset: 0x132B6, size: 0x8, addend: 0x0, symName: __ZNSt3__16vectorINS0_I6EntityNS_9allocatorIS1_EEEENS2_IS4_EEE7__allocB8ue170006Ev, symObjAddr: 0x2814, symBinAddr: 0x100002EE0, symSize: 0x28 }
  - { offsetInCU: 0x132DC, offset: 0x132DC, size: 0x8, addend: 0x0, symName: __ZNKSt3__16vectorINS0_I6EntityNS_9allocatorIS1_EEEENS2_IS4_EEE11__recommendB8ue170006Em, symObjAddr: 0x283C, symBinAddr: 0x100002F08, symSize: 0xB4 }
  - { offsetInCU: 0x13331, offset: 0x13331, size: 0x8, addend: 0x0, symName: __ZNSt3__114__split_bufferINS_6vectorI6EntityNS_9allocatorIS2_EEEERNS3_IS5_EEEC1EmmS7_, symObjAddr: 0x28F0, symBinAddr: 0x100002FBC, symSize: 0x44 }
  - { offsetInCU: 0x13387, offset: 0x13387, size: 0x8, addend: 0x0, symName: __ZNSt3__114__split_bufferINS_6vectorI6EntityNS_9allocatorIS2_EEEERNS3_IS5_EEE18__construct_at_endEmRKS5_, symObjAddr: 0x2934, symBinAddr: 0x100003000, symSize: 0xBC }
  - { offsetInCU: 0x133DA, offset: 0x133DA, size: 0x8, addend: 0x0, symName: __ZNSt3__114__split_bufferINS_6vectorI6EntityNS_9allocatorIS2_EEEERNS3_IS5_EEED1Ev, symObjAddr: 0x2B00, symBinAddr: 0x1000031CC, symSize: 0x2C }
  - { offsetInCU: 0x13406, offset: 0x13406, size: 0x8, addend: 0x0, symName: __ZNSt3__117__compressed_pairIPNS_6vectorI6EntityNS_9allocatorIS2_EEEENS3_IS5_EEE5firstB8ue170006Ev, symObjAddr: 0x2B2C, symBinAddr: 0x1000031F8, symSize: 0x24 }
  - { offsetInCU: 0x1342C, offset: 0x1342C, size: 0x8, addend: 0x0, symName: __ZNSt3__122__compressed_pair_elemIPNS_6vectorI6EntityNS_9allocatorIS2_EEEELi0ELb0EE5__getB8ue170006Ev, symObjAddr: 0x2B50, symBinAddr: 0x10000321C, symSize: 0x14 }
  - { offsetInCU: 0x1346B, offset: 0x1346B, size: 0x8, addend: 0x0, symName: __ZNSt3__16vectorINS0_I6EntityNS_9allocatorIS1_EEEENS2_IS4_EEE21_ConstructTransactionC1B8ue170006ERS6_m, symObjAddr: 0x2B64, symBinAddr: 0x100003230, symSize: 0x3C }
  - { offsetInCU: 0x134B3, offset: 0x134B3, size: 0x8, addend: 0x0, symName: __ZNSt3__116allocator_traitsINS_9allocatorINS_6vectorI6EntityNS1_IS3_EEEEEEE9constructB8ue170006IS5_JRKS5_EvEEvRS6_PT_DpOT0_, symObjAddr: 0x2BA0, symBinAddr: 0x10000326C, symSize: 0x34 }
  - { offsetInCU: 0x1350A, offset: 0x1350A, size: 0x8, addend: 0x0, symName: __ZNSt3__16vectorINS0_I6EntityNS_9allocatorIS1_EEEENS2_IS4_EEE21_ConstructTransactionD1B8ue170006Ev, symObjAddr: 0x2BE8, symBinAddr: 0x1000032B4, symSize: 0x2C }
  - { offsetInCU: 0x13534, offset: 0x13534, size: 0x8, addend: 0x0, symName: __ZNSt3__16vectorINS0_I6EntityNS_9allocatorIS1_EEEENS2_IS4_EEE21_ConstructTransactionC2B8ue170006ERS6_m, symObjAddr: 0x2C14, symBinAddr: 0x1000032E0, symSize: 0x4C }
  - { offsetInCU: 0x1357C, offset: 0x1357C, size: 0x8, addend: 0x0, symName: __ZNSt3__19allocatorINS_6vectorI6EntityNS0_IS2_EEEEE9constructB8ue170006IS4_JRKS4_EEEvPT_DpOT0_, symObjAddr: 0x2C60, symBinAddr: 0x10000332C, symSize: 0x30 }
  - { offsetInCU: 0x135D2, offset: 0x135D2, size: 0x8, addend: 0x0, symName: __ZNSt3__16vectorI6EntityNS_9allocatorIS1_EEEC1ERKS4_, symObjAddr: 0x2C90, symBinAddr: 0x10000335C, symSize: 0x34 }
  - { offsetInCU: 0x1360D, offset: 0x1360D, size: 0x8, addend: 0x0, symName: __ZNSt3__16vectorI6EntityNS_9allocatorIS1_EEEC2ERKS4_, symObjAddr: 0x2CC4, symBinAddr: 0x100003390, symSize: 0x94 }
  - { offsetInCU: 0x13652, offset: 0x13652, size: 0x8, addend: 0x0, symName: __ZNSt3__116allocator_traitsINS_9allocatorI6EntityEEE37select_on_container_copy_constructionB8ue170006IS3_vvEES3_RKS3_, symObjAddr: 0x2D58, symBinAddr: 0x100003424, symSize: 0x10 }
  - { offsetInCU: 0x13681, offset: 0x13681, size: 0x8, addend: 0x0, symName: __ZNKSt3__16vectorI6EntityNS_9allocatorIS1_EEE7__allocB8ue170006Ev, symObjAddr: 0x2D68, symBinAddr: 0x100003434, symSize: 0x28 }
  - { offsetInCU: 0x136AC, offset: 0x136AC, size: 0x8, addend: 0x0, symName: __ZNSt3__117__compressed_pairIP6EntityNS_9allocatorIS1_EEEC1B8ue170006IDnS4_EEOT_OT0_, symObjAddr: 0x2D90, symBinAddr: 0x10000345C, symSize: 0x3C }
  - { offsetInCU: 0x13704, offset: 0x13704, size: 0x8, addend: 0x0, symName: __ZNSt3__16vectorI6EntityNS_9allocatorIS1_EEE16__init_with_sizeB8ue170006IPS1_S6_EEvT_T0_m, symObjAddr: 0x2DCC, symBinAddr: 0x100003498, symSize: 0xB8 }
  - { offsetInCU: 0x13778, offset: 0x13778, size: 0x8, addend: 0x0, symName: __ZNKSt3__16vectorI6EntityNS_9allocatorIS1_EEE4sizeB8ue170006Ev, symObjAddr: 0x2E84, symBinAddr: 0x100003550, symSize: 0x28 }
  - { offsetInCU: 0x1379E, offset: 0x1379E, size: 0x8, addend: 0x0, symName: __ZNKSt3__117__compressed_pairIP6EntityNS_9allocatorIS1_EEE6secondB8ue170006Ev, symObjAddr: 0x2EAC, symBinAddr: 0x100003578, symSize: 0x24 }
  - { offsetInCU: 0x137C4, offset: 0x137C4, size: 0x8, addend: 0x0, symName: __ZNKSt3__122__compressed_pair_elemINS_9allocatorI6EntityEELi1ELb1EE5__getB8ue170006Ev, symObjAddr: 0x2ED0, symBinAddr: 0x10000359C, symSize: 0x14 }
  - { offsetInCU: 0x137EA, offset: 0x137EA, size: 0x8, addend: 0x0, symName: __ZNSt3__117__compressed_pairIP6EntityNS_9allocatorIS1_EEEC2B8ue170006IDnS4_EEOT_OT0_, symObjAddr: 0x2EE4, symBinAddr: 0x1000035B0, symSize: 0x44 }
  - { offsetInCU: 0x13842, offset: 0x13842, size: 0x8, addend: 0x0, symName: __ZNSt3__122__compressed_pair_elemIP6EntityLi0ELb0EEC2B8ue170006IDnvEEOT_, symObjAddr: 0x2F28, symBinAddr: 0x1000035F4, symSize: 0x1C }
  - { offsetInCU: 0x13884, offset: 0x13884, size: 0x8, addend: 0x0, symName: __ZNSt3__122__compressed_pair_elemINS_9allocatorI6EntityEELi1ELb1EEC2B8ue170006IS3_vEEOT_, symObjAddr: 0x2F44, symBinAddr: 0x100003610, symSize: 0x18 }
  - { offsetInCU: 0x138C6, offset: 0x138C6, size: 0x8, addend: 0x0, symName: __ZNSt3__16vectorI6EntityNS_9allocatorIS1_EEE16__destroy_vectorC1B8ue170006ERS4_, symObjAddr: 0x2F9C, symBinAddr: 0x100003668, symSize: 0x34 }
  - { offsetInCU: 0x138FF, offset: 0x138FF, size: 0x8, addend: 0x0, symName: __ZNSt3__16vectorI6EntityNS_9allocatorIS1_EEE11__vallocateB8ue170006Em, symObjAddr: 0x2FD0, symBinAddr: 0x10000369C, symSize: 0xAC }
  - { offsetInCU: 0x13943, offset: 0x13943, size: 0x8, addend: 0x0, symName: __ZNSt3__16vectorI6EntityNS_9allocatorIS1_EEE18__construct_at_endIPS1_S6_EEvT_T0_m, symObjAddr: 0x307C, symBinAddr: 0x100003748, symSize: 0x8C }
  - { offsetInCU: 0x139B9, offset: 0x139B9, size: 0x8, addend: 0x0, symName: __ZNSt3__128__exception_guard_exceptionsINS_6vectorI6EntityNS_9allocatorIS2_EEE16__destroy_vectorEE10__completeB8ue170006Ev, symObjAddr: 0x3108, symBinAddr: 0x1000037D4, symSize: 0x1C }
  - { offsetInCU: 0x139DF, offset: 0x139DF, size: 0x8, addend: 0x0, symName: __ZNSt3__128__exception_guard_exceptionsINS_6vectorI6EntityNS_9allocatorIS2_EEE16__destroy_vectorEED1B8ue170006Ev, symObjAddr: 0x3124, symBinAddr: 0x1000037F0, symSize: 0x2C }
  - { offsetInCU: 0x13A09, offset: 0x13A09, size: 0x8, addend: 0x0, symName: __ZNSt3__128__exception_guard_exceptionsINS_6vectorI6EntityNS_9allocatorIS2_EEE16__destroy_vectorEEC1B8ue170006ES6_, symObjAddr: 0x3150, symBinAddr: 0x10000381C, symSize: 0x34 }
  - { offsetInCU: 0x13A41, offset: 0x13A41, size: 0x8, addend: 0x0, symName: __ZNSt3__128__exception_guard_exceptionsINS_6vectorI6EntityNS_9allocatorIS2_EEE16__destroy_vectorEEC2B8ue170006ES6_, symObjAddr: 0x3184, symBinAddr: 0x100003850, symSize: 0x24 }
  - { offsetInCU: 0x13A79, offset: 0x13A79, size: 0x8, addend: 0x0, symName: __ZNSt3__16vectorI6EntityNS_9allocatorIS1_EEE16__destroy_vectorC2B8ue170006ERS4_, symObjAddr: 0x31A8, symBinAddr: 0x100003874, symSize: 0x20 }
  - { offsetInCU: 0x13AB2, offset: 0x13AB2, size: 0x8, addend: 0x0, symName: __ZNKSt3__16vectorI6EntityNS_9allocatorIS1_EEE8max_sizeEv, symObjAddr: 0x31C8, symBinAddr: 0x100003894, symSize: 0x60 }
  - { offsetInCU: 0x13ADA, offset: 0x13ADA, size: 0x8, addend: 0x0, symName: __ZNKSt3__16vectorI6EntityNS_9allocatorIS1_EEE20__throw_length_errorB8ue170006Ev, symObjAddr: 0x3228, symBinAddr: 0x1000038F4, symSize: 0x1C }
  - { offsetInCU: 0x13B00, offset: 0x13B00, size: 0x8, addend: 0x0, symName: __ZNSt3__16vectorI6EntityNS_9allocatorIS1_EEE7__allocB8ue170006Ev, symObjAddr: 0x3284, symBinAddr: 0x100003950, symSize: 0x28 }
  - { offsetInCU: 0x13B26, offset: 0x13B26, size: 0x8, addend: 0x0, symName: __ZNSt3__16vectorI6EntityNS_9allocatorIS1_EEE9__end_capB8ue170006Ev, symObjAddr: 0x32AC, symBinAddr: 0x100003978, symSize: 0x28 }
  - { offsetInCU: 0x13B4C, offset: 0x13B4C, size: 0x8, addend: 0x0, symName: __ZNKSt3__16vectorI6EntityNS_9allocatorIS1_EEE14__annotate_newB8ue170006Em, symObjAddr: 0x32D4, symBinAddr: 0x1000039A0, symSize: 0xAC }
  - { offsetInCU: 0x13B81, offset: 0x13B81, size: 0x8, addend: 0x0, symName: __ZNSt3__116allocator_traitsINS_9allocatorI6EntityEEE8max_sizeB8ue170006IS3_vEEmRKS3_, symObjAddr: 0x33AC, symBinAddr: 0x100003A78, symSize: 0x24 }
  - { offsetInCU: 0x13BAF, offset: 0x13BAF, size: 0x8, addend: 0x0, symName: __ZNSt3__114numeric_limitsIlE3maxB8ue170006Ev, symObjAddr: 0x33D0, symBinAddr: 0x100003A9C, symSize: 0x14 }
  - { offsetInCU: 0x13BCD, offset: 0x13BCD, size: 0x8, addend: 0x0, symName: __ZNKSt3__16__lessIvvEclB8ue170006ImmEEbRKT_RKT0_, symObjAddr: 0x3438, symBinAddr: 0x100003B04, symSize: 0x34 }
  - { offsetInCU: 0x13C21, offset: 0x13C21, size: 0x8, addend: 0x0, symName: __ZNKSt3__19allocatorI6EntityE8max_sizeB8ue170006Ev, symObjAddr: 0x346C, symBinAddr: 0x100003B38, symSize: 0x14 }
  - { offsetInCU: 0x13C47, offset: 0x13C47, size: 0x8, addend: 0x0, symName: __ZNSt3__123__libcpp_numeric_limitsIlLb1EE3maxB8ue170006Ev, symObjAddr: 0x3480, symBinAddr: 0x100003B4C, symSize: 0x8 }
  - { offsetInCU: 0x13C5B, offset: 0x13C5B, size: 0x8, addend: 0x0, symName: __ZNSt12length_errorC1B8ue170006EPKc, symObjAddr: 0x34EC, symBinAddr: 0x100003BB8, symSize: 0x34 }
  - { offsetInCU: 0x13C93, offset: 0x13C93, size: 0x8, addend: 0x0, symName: __ZNSt12length_errorC2B8ue170006EPKc, symObjAddr: 0x3520, symBinAddr: 0x100003BEC, symSize: 0x4C }
  - { offsetInCU: 0x13CCB, offset: 0x13CCB, size: 0x8, addend: 0x0, symName: __ZNSt3__19allocatorI6EntityE8allocateB8ue170006Em, symObjAddr: 0x356C, symBinAddr: 0x100003C38, symSize: 0x58 }
  - { offsetInCU: 0x13CFF, offset: 0x13CFF, size: 0x8, addend: 0x0, symName: __ZNSt3__117__compressed_pairIP6EntityNS_9allocatorIS1_EEE6secondB8ue170006Ev, symObjAddr: 0x3644, symBinAddr: 0x100003D10, symSize: 0x24 }
  - { offsetInCU: 0x13D25, offset: 0x13D25, size: 0x8, addend: 0x0, symName: __ZNSt3__122__compressed_pair_elemINS_9allocatorI6EntityEELi1ELb1EE5__getB8ue170006Ev, symObjAddr: 0x3668, symBinAddr: 0x100003D34, symSize: 0x14 }
  - { offsetInCU: 0x13D4B, offset: 0x13D4B, size: 0x8, addend: 0x0, symName: __ZNSt3__117__compressed_pairIP6EntityNS_9allocatorIS1_EEE5firstB8ue170006Ev, symObjAddr: 0x367C, symBinAddr: 0x100003D48, symSize: 0x24 }
  - { offsetInCU: 0x13D71, offset: 0x13D71, size: 0x8, addend: 0x0, symName: __ZNSt3__122__compressed_pair_elemIP6EntityLi0ELb0EE5__getB8ue170006Ev, symObjAddr: 0x36A0, symBinAddr: 0x100003D6C, symSize: 0x14 }
  - { offsetInCU: 0x13D97, offset: 0x13D97, size: 0x8, addend: 0x0, symName: __ZNKSt3__16vectorI6EntityNS_9allocatorIS1_EEE31__annotate_contiguous_containerB8ue170006EPKvS6_S6_S6_, symObjAddr: 0x36B4, symBinAddr: 0x100003D80, symSize: 0x20 }
  - { offsetInCU: 0x13DE9, offset: 0x13DE9, size: 0x8, addend: 0x0, symName: __ZNKSt3__16vectorI6EntityNS_9allocatorIS1_EEE4dataB8ue170006Ev, symObjAddr: 0x36D4, symBinAddr: 0x100003DA0, symSize: 0x28 }
  - { offsetInCU: 0x13E0F, offset: 0x13E0F, size: 0x8, addend: 0x0, symName: __ZNKSt3__16vectorI6EntityNS_9allocatorIS1_EEE8capacityB8ue170006Ev, symObjAddr: 0x36FC, symBinAddr: 0x100003DC8, symSize: 0x40 }
  - { offsetInCU: 0x13E35, offset: 0x13E35, size: 0x8, addend: 0x0, symName: __ZNKSt3__16vectorI6EntityNS_9allocatorIS1_EEE9__end_capB8ue170006Ev, symObjAddr: 0x3750, symBinAddr: 0x100003E1C, symSize: 0x28 }
  - { offsetInCU: 0x13E5B, offset: 0x13E5B, size: 0x8, addend: 0x0, symName: __ZNKSt3__117__compressed_pairIP6EntityNS_9allocatorIS1_EEE5firstB8ue170006Ev, symObjAddr: 0x3778, symBinAddr: 0x100003E44, symSize: 0x24 }
  - { offsetInCU: 0x13E81, offset: 0x13E81, size: 0x8, addend: 0x0, symName: __ZNKSt3__122__compressed_pair_elemIP6EntityLi0ELb0EE5__getB8ue170006Ev, symObjAddr: 0x379C, symBinAddr: 0x100003E68, symSize: 0x14 }
  - { offsetInCU: 0x13EC0, offset: 0x13EC0, size: 0x8, addend: 0x0, symName: __ZNSt3__16vectorI6EntityNS_9allocatorIS1_EEE21_ConstructTransactionC1B8ue170006ERS4_m, symObjAddr: 0x37B0, symBinAddr: 0x100003E7C, symSize: 0x3C }
  - { offsetInCU: 0x13F08, offset: 0x13F08, size: 0x8, addend: 0x0, symName: __ZNSt3__16vectorI6EntityNS_9allocatorIS1_EEE21_ConstructTransactionD1B8ue170006Ev, symObjAddr: 0x386C, symBinAddr: 0x100003F38, symSize: 0x2C }
  - { offsetInCU: 0x13F32, offset: 0x13F32, size: 0x8, addend: 0x0, symName: __ZNSt3__16vectorI6EntityNS_9allocatorIS1_EEE21_ConstructTransactionC2B8ue170006ERS4_m, symObjAddr: 0x3898, symBinAddr: 0x100003F64, symSize: 0x44 }
  - { offsetInCU: 0x13F98, offset: 0x13F98, size: 0x8, addend: 0x0, symName: __ZNSt3__14pairIP6EntityS2_EC1B8ue170006IS2_S2_LPv0EEEOT_OT0_, symObjAddr: 0x3A0C, symBinAddr: 0x1000040D8, symSize: 0x3C }
  - { offsetInCU: 0x13FF6, offset: 0x13FF6, size: 0x8, addend: 0x0, symName: __ZNSt3__14pairIP6EntityS2_EC2B8ue170006IS2_S2_LPv0EEEOT_OT0_, symObjAddr: 0x3A48, symBinAddr: 0x100004114, symSize: 0x34 }
  - { offsetInCU: 0x1405E, offset: 0x1405E, size: 0x8, addend: 0x0, symName: __ZNKSt3__114__copy_trivialclB8ue170006I6EntityS2_Li0EEENS_4pairIPT_PT0_EES5_S5_S7_, symObjAddr: 0x3BF8, symBinAddr: 0x1000042C4, symSize: 0x48 }
  - { offsetInCU: 0x140C6, offset: 0x140C6, size: 0x8, addend: 0x0, symName: __ZNSt3__14pairIP6EntityS2_EC1B8ue170006IRS2_S2_LPv0EEEOT_OT0_, symObjAddr: 0x3D88, symBinAddr: 0x100004454, symSize: 0x3C }
  - { offsetInCU: 0x14124, offset: 0x14124, size: 0x8, addend: 0x0, symName: __ZNSt3__14pairIP6EntityS2_EC2B8ue170006IRS2_S2_LPv0EEEOT_OT0_, symObjAddr: 0x3DC4, symBinAddr: 0x100004490, symSize: 0x34 }
  - { offsetInCU: 0x14182, offset: 0x14182, size: 0x8, addend: 0x0, symName: __ZNSt3__118__unwrap_iter_implIP6EntityLb1EE8__unwrapB8ue170006ES2_, symObjAddr: 0x3DF8, symBinAddr: 0x1000044C4, symSize: 0x24 }
  - { offsetInCU: 0x141A5, offset: 0x141A5, size: 0x8, addend: 0x0, symName: __ZNSt3__118__unwrap_iter_implIP6EntityLb1EE8__rewrapB8ue170006ES2_S2_, symObjAddr: 0x3E1C, symBinAddr: 0x1000044E8, symSize: 0x50 }
  - { offsetInCU: 0x141D6, offset: 0x141D6, size: 0x8, addend: 0x0, symName: __ZNSt3__16vectorI6EntityNS_9allocatorIS1_EEE21_ConstructTransactionD2B8ue170006Ev, symObjAddr: 0x3E6C, symBinAddr: 0x100004538, symSize: 0x20 }
  - { offsetInCU: 0x14200, offset: 0x14200, size: 0x8, addend: 0x0, symName: __ZNSt3__128__exception_guard_exceptionsINS_6vectorI6EntityNS_9allocatorIS2_EEE16__destroy_vectorEED2B8ue170006Ev, symObjAddr: 0x3E8C, symBinAddr: 0x100004558, symSize: 0x50 }
  - { offsetInCU: 0x1422A, offset: 0x1422A, size: 0x8, addend: 0x0, symName: __ZNSt3__16vectorI6EntityNS_9allocatorIS1_EEE16__destroy_vectorclB8ue170006Ev, symObjAddr: 0x3EDC, symBinAddr: 0x1000045A8, symSize: 0x90 }
  - { offsetInCU: 0x14250, offset: 0x14250, size: 0x8, addend: 0x0, symName: __ZNSt3__16vectorI6EntityNS_9allocatorIS1_EEE7__clearB8ue170006Ev, symObjAddr: 0x3F6C, symBinAddr: 0x100004638, symSize: 0x28 }
  - { offsetInCU: 0x14276, offset: 0x14276, size: 0x8, addend: 0x0, symName: __ZNKSt3__16vectorI6EntityNS_9allocatorIS1_EEE17__annotate_deleteB8ue170006Ev, symObjAddr: 0x3F94, symBinAddr: 0x100004660, symSize: 0xB8 }
  - { offsetInCU: 0x1429C, offset: 0x1429C, size: 0x8, addend: 0x0, symName: __ZNSt3__116allocator_traitsINS_9allocatorI6EntityEEE10deallocateB8ue170006ERS3_PS2_m, symObjAddr: 0x404C, symBinAddr: 0x100004718, symSize: 0x34 }
  - { offsetInCU: 0x142DE, offset: 0x142DE, size: 0x8, addend: 0x0, symName: __ZNSt3__16vectorI6EntityNS_9allocatorIS1_EEE22__base_destruct_at_endB8ue170006EPS1_, symObjAddr: 0x4080, symBinAddr: 0x10000474C, symSize: 0x8C }
  - { offsetInCU: 0x14322, offset: 0x14322, size: 0x8, addend: 0x0, symName: __ZNSt3__116allocator_traitsINS_9allocatorI6EntityEEE7destroyB8ue170006IS2_vEEvRS3_PT_, symObjAddr: 0x410C, symBinAddr: 0x1000047D8, symSize: 0x2C }
  - { offsetInCU: 0x1435F, offset: 0x1435F, size: 0x8, addend: 0x0, symName: __ZNSt3__19allocatorI6EntityE7destroyB8ue170006EPS1_, symObjAddr: 0x4138, symBinAddr: 0x100004804, symSize: 0x14 }
  - { offsetInCU: 0x14393, offset: 0x14393, size: 0x8, addend: 0x0, symName: __ZNSt3__19allocatorI6EntityE10deallocateB8ue170006EPS1_m, symObjAddr: 0x414C, symBinAddr: 0x100004818, symSize: 0x40 }
  - { offsetInCU: 0x143D5, offset: 0x143D5, size: 0x8, addend: 0x0, symName: __ZNSt3__16vectorINS0_I6EntityNS_9allocatorIS1_EEEENS2_IS4_EEE21_ConstructTransactionD2B8ue170006Ev, symObjAddr: 0x418C, symBinAddr: 0x100004858, symSize: 0x20 }
  - { offsetInCU: 0x143FF, offset: 0x143FF, size: 0x8, addend: 0x0, symName: __ZNSt3__117__compressed_pairIPNS_6vectorI6EntityNS_9allocatorIS2_EEEENS3_IS5_EEE6secondB8ue170006Ev, symObjAddr: 0x41AC, symBinAddr: 0x100004878, symSize: 0x24 }
  - { offsetInCU: 0x14425, offset: 0x14425, size: 0x8, addend: 0x0, symName: __ZNSt3__122__compressed_pair_elemINS_9allocatorINS_6vectorI6EntityNS1_IS3_EEEEEELi1ELb1EE5__getB8ue170006Ev, symObjAddr: 0x41D0, symBinAddr: 0x10000489C, symSize: 0x14 }
  - { offsetInCU: 0x1444B, offset: 0x1444B, size: 0x8, addend: 0x0, symName: __ZNKSt3__16vectorINS0_I6EntityNS_9allocatorIS1_EEEENS2_IS4_EEE8max_sizeEv, symObjAddr: 0x41E4, symBinAddr: 0x1000048B0, symSize: 0x60 }
  - { offsetInCU: 0x14473, offset: 0x14473, size: 0x8, addend: 0x0, symName: __ZNKSt3__16vectorINS0_I6EntityNS_9allocatorIS1_EEEENS2_IS4_EEE20__throw_length_errorB8ue170006Ev, symObjAddr: 0x4244, symBinAddr: 0x100004910, symSize: 0x1C }
  - { offsetInCU: 0x14499, offset: 0x14499, size: 0x8, addend: 0x0, symName: __ZNKSt3__16vectorINS0_I6EntityNS_9allocatorIS1_EEEENS2_IS4_EEE8capacityB8ue170006Ev, symObjAddr: 0x4260, symBinAddr: 0x10000492C, symSize: 0x40 }
  - { offsetInCU: 0x144C9, offset: 0x144C9, size: 0x8, addend: 0x0, symName: __ZNSt3__116allocator_traitsINS_9allocatorINS_6vectorI6EntityNS1_IS3_EEEEEEE8max_sizeB8ue170006IS6_vEEmRKS6_, symObjAddr: 0x42CC, symBinAddr: 0x100004998, symSize: 0x24 }
  - { offsetInCU: 0x144F7, offset: 0x144F7, size: 0x8, addend: 0x0, symName: __ZNKSt3__16vectorINS0_I6EntityNS_9allocatorIS1_EEEENS2_IS4_EEE7__allocB8ue170006Ev, symObjAddr: 0x42F0, symBinAddr: 0x1000049BC, symSize: 0x28 }
  - { offsetInCU: 0x1451D, offset: 0x1451D, size: 0x8, addend: 0x0, symName: __ZNKSt3__19allocatorINS_6vectorI6EntityNS0_IS2_EEEEE8max_sizeB8ue170006Ev, symObjAddr: 0x4318, symBinAddr: 0x1000049E4, symSize: 0x18 }
  - { offsetInCU: 0x14543, offset: 0x14543, size: 0x8, addend: 0x0, symName: __ZNKSt3__117__compressed_pairIPNS_6vectorI6EntityNS_9allocatorIS2_EEEENS3_IS5_EEE6secondB8ue170006Ev, symObjAddr: 0x4330, symBinAddr: 0x1000049FC, symSize: 0x24 }
  - { offsetInCU: 0x14569, offset: 0x14569, size: 0x8, addend: 0x0, symName: __ZNKSt3__122__compressed_pair_elemINS_9allocatorINS_6vectorI6EntityNS1_IS3_EEEEEELi1ELb1EE5__getB8ue170006Ev, symObjAddr: 0x4354, symBinAddr: 0x100004A20, symSize: 0x14 }
  - { offsetInCU: 0x1458F, offset: 0x1458F, size: 0x8, addend: 0x0, symName: __ZNKSt3__16vectorINS0_I6EntityNS_9allocatorIS1_EEEENS2_IS4_EEE9__end_capB8ue170006Ev, symObjAddr: 0x4368, symBinAddr: 0x100004A34, symSize: 0x28 }
  - { offsetInCU: 0x145B5, offset: 0x145B5, size: 0x8, addend: 0x0, symName: __ZNKSt3__117__compressed_pairIPNS_6vectorI6EntityNS_9allocatorIS2_EEEENS3_IS5_EEE5firstB8ue170006Ev, symObjAddr: 0x4390, symBinAddr: 0x100004A5C, symSize: 0x24 }
  - { offsetInCU: 0x145DB, offset: 0x145DB, size: 0x8, addend: 0x0, symName: __ZNKSt3__122__compressed_pair_elemIPNS_6vectorI6EntityNS_9allocatorIS2_EEEELi0ELb0EE5__getB8ue170006Ev, symObjAddr: 0x43B4, symBinAddr: 0x100004A80, symSize: 0x14 }
  - { offsetInCU: 0x14601, offset: 0x14601, size: 0x8, addend: 0x0, symName: __ZNSt3__114__split_bufferINS_6vectorI6EntityNS_9allocatorIS2_EEEERNS3_IS5_EEEC2EmmS7_, symObjAddr: 0x441C, symBinAddr: 0x100004AE8, symSize: 0xE0 }
  - { offsetInCU: 0x14675, offset: 0x14675, size: 0x8, addend: 0x0, symName: __ZNSt3__117__compressed_pairIPNS_6vectorI6EntityNS_9allocatorIS2_EEEERNS3_IS5_EEEC1B8ue170006IDnS8_EEOT_OT0_, symObjAddr: 0x44FC, symBinAddr: 0x100004BC8, symSize: 0x3C }
  - { offsetInCU: 0x146CD, offset: 0x146CD, size: 0x8, addend: 0x0, symName: __ZNSt3__114__split_bufferINS_6vectorI6EntityNS_9allocatorIS2_EEEERNS3_IS5_EEE7__allocB8ue170006Ev, symObjAddr: 0x4578, symBinAddr: 0x100004C44, symSize: 0x28 }
  - { offsetInCU: 0x146F3, offset: 0x146F3, size: 0x8, addend: 0x0, symName: __ZNSt3__114__split_bufferINS_6vectorI6EntityNS_9allocatorIS2_EEEERNS3_IS5_EEE9__end_capB8ue170006Ev, symObjAddr: 0x45A0, symBinAddr: 0x100004C6C, symSize: 0x28 }
  - { offsetInCU: 0x14719, offset: 0x14719, size: 0x8, addend: 0x0, symName: __ZNSt3__117__compressed_pairIPNS_6vectorI6EntityNS_9allocatorIS2_EEEERNS3_IS5_EEEC2B8ue170006IDnS8_EEOT_OT0_, symObjAddr: 0x45C8, symBinAddr: 0x100004C94, symSize: 0x48 }
  - { offsetInCU: 0x14771, offset: 0x14771, size: 0x8, addend: 0x0, symName: __ZNSt3__122__compressed_pair_elemIRNS_9allocatorINS_6vectorI6EntityNS1_IS3_EEEEEELi1ELb0EEC2B8ue170006IS7_vEEOT_, symObjAddr: 0x4610, symBinAddr: 0x100004CDC, symSize: 0x20 }
  - { offsetInCU: 0x147B3, offset: 0x147B3, size: 0x8, addend: 0x0, symName: __ZNSt3__19allocatorINS_6vectorI6EntityNS0_IS2_EEEEE8allocateB8ue170006Em, symObjAddr: 0x4630, symBinAddr: 0x100004CFC, symSize: 0x5C }
  - { offsetInCU: 0x147E7, offset: 0x147E7, size: 0x8, addend: 0x0, symName: __ZNSt3__117__compressed_pairIPNS_6vectorI6EntityNS_9allocatorIS2_EEEERNS3_IS5_EEE6secondB8ue170006Ev, symObjAddr: 0x468C, symBinAddr: 0x100004D58, symSize: 0x28 }
  - { offsetInCU: 0x1480D, offset: 0x1480D, size: 0x8, addend: 0x0, symName: __ZNSt3__122__compressed_pair_elemIRNS_9allocatorINS_6vectorI6EntityNS1_IS3_EEEEEELi1ELb0EE5__getB8ue170006Ev, symObjAddr: 0x46B4, symBinAddr: 0x100004D80, symSize: 0x18 }
  - { offsetInCU: 0x14833, offset: 0x14833, size: 0x8, addend: 0x0, symName: __ZNSt3__117__compressed_pairIPNS_6vectorI6EntityNS_9allocatorIS2_EEEERNS3_IS5_EEE5firstB8ue170006Ev, symObjAddr: 0x46CC, symBinAddr: 0x100004D98, symSize: 0x24 }
  - { offsetInCU: 0x14863, offset: 0x14863, size: 0x8, addend: 0x0, symName: __ZNSt3__114__split_bufferINS_6vectorI6EntityNS_9allocatorIS2_EEEERNS3_IS5_EEE21_ConstructTransactionC1B8ue170006EPPS5_m, symObjAddr: 0x46F0, symBinAddr: 0x100004DBC, symSize: 0x3C }
  - { offsetInCU: 0x148A9, offset: 0x148A9, size: 0x8, addend: 0x0, symName: __ZNSt3__114__split_bufferINS_6vectorI6EntityNS_9allocatorIS2_EEEERNS3_IS5_EEE21_ConstructTransactionD1B8ue170006Ev, symObjAddr: 0x472C, symBinAddr: 0x100004DF8, symSize: 0x2C }
  - { offsetInCU: 0x148D3, offset: 0x148D3, size: 0x8, addend: 0x0, symName: __ZNSt3__114__split_bufferINS_6vectorI6EntityNS_9allocatorIS2_EEEERNS3_IS5_EEE21_ConstructTransactionC2B8ue170006EPPS5_m, symObjAddr: 0x4758, symBinAddr: 0x100004E24, symSize: 0x4C }
  - { offsetInCU: 0x14919, offset: 0x14919, size: 0x8, addend: 0x0, symName: __ZNSt3__114__split_bufferINS_6vectorI6EntityNS_9allocatorIS2_EEEERNS3_IS5_EEE21_ConstructTransactionD2B8ue170006Ev, symObjAddr: 0x47A4, symBinAddr: 0x100004E70, symSize: 0x20 }
  - { offsetInCU: 0x14943, offset: 0x14943, size: 0x8, addend: 0x0, symName: __ZNKSt3__16vectorINS0_I6EntityNS_9allocatorIS1_EEEENS2_IS4_EEE17__annotate_deleteB8ue170006Ev, symObjAddr: 0x47C4, symBinAddr: 0x100004E90, symSize: 0xD4 }
  - { offsetInCU: 0x14969, offset: 0x14969, size: 0x8, addend: 0x0, symName: __ZNSt3__116reverse_iteratorIPNS_6vectorI6EntityNS_9allocatorIS2_EEEEEC1B8ue170006ES6_, symObjAddr: 0x49C4, symBinAddr: 0x100005090, symSize: 0x34 }
  - { offsetInCU: 0x149A1, offset: 0x149A1, size: 0x8, addend: 0x0, symName: __ZNKSt3__116reverse_iteratorIPNS_6vectorI6EntityNS_9allocatorIS2_EEEEE4baseB8ue170006Ev, symObjAddr: 0x49F8, symBinAddr: 0x1000050C4, symSize: 0x18 }
  - { offsetInCU: 0x149C7, offset: 0x149C7, size: 0x8, addend: 0x0, symName: __ZNKSt3__16vectorINS0_I6EntityNS_9allocatorIS1_EEEENS2_IS4_EEE14__annotate_newB8ue170006Em, symObjAddr: 0x4A4C, symBinAddr: 0x100005118, symSize: 0xC8 }
  - { offsetInCU: 0x149FC, offset: 0x149FC, size: 0x8, addend: 0x0, symName: __ZNKSt3__16vectorINS0_I6EntityNS_9allocatorIS1_EEEENS2_IS4_EEE31__annotate_contiguous_containerB8ue170006EPKvS8_S8_S8_, symObjAddr: 0x4B14, symBinAddr: 0x1000051E0, symSize: 0x20 }
  - { offsetInCU: 0x14A4E, offset: 0x14A4E, size: 0x8, addend: 0x0, symName: __ZNKSt3__16vectorINS0_I6EntityNS_9allocatorIS1_EEEENS2_IS4_EEE4dataB8ue170006Ev, symObjAddr: 0x4B34, symBinAddr: 0x100005200, symSize: 0x28 }
  - { offsetInCU: 0x14A74, offset: 0x14A74, size: 0x8, addend: 0x0, symName: __ZNSt3__129_AllocatorDestroyRangeReverseINS_9allocatorINS_6vectorI6EntityNS1_IS3_EEEEEENS_16reverse_iteratorIPS5_EEEC1B8ue170006ERS6_RS9_SC_, symObjAddr: 0x4BA8, symBinAddr: 0x100005274, symSize: 0x44 }
  - { offsetInCU: 0x14ACB, offset: 0x14ACB, size: 0x8, addend: 0x0, symName: __ZNSt3__116allocator_traitsINS_9allocatorINS_6vectorI6EntityNS1_IS3_EEEEEEE9constructB8ue170006IS5_JS5_EvEEvRS6_PT_DpOT0_, symObjAddr: 0x4C34, symBinAddr: 0x100005300, symSize: 0x34 }
  - { offsetInCU: 0x14B22, offset: 0x14B22, size: 0x8, addend: 0x0, symName: __ZNKSt3__116reverse_iteratorIPNS_6vectorI6EntityNS_9allocatorIS2_EEEEEdeB8ue170006Ev, symObjAddr: 0x4C8C, symBinAddr: 0x100005358, symSize: 0x28 }
  - { offsetInCU: 0x14B56, offset: 0x14B56, size: 0x8, addend: 0x0, symName: __ZNSt3__116reverse_iteratorIPNS_6vectorI6EntityNS_9allocatorIS2_EEEEEppB8ue170006Ev, symObjAddr: 0x4CB4, symBinAddr: 0x100005380, symSize: 0x20 }
  - { offsetInCU: 0x14B7C, offset: 0x14B7C, size: 0x8, addend: 0x0, symName: __ZNSt3__128__exception_guard_exceptionsINS_29_AllocatorDestroyRangeReverseINS_9allocatorINS_6vectorI6EntityNS2_IS4_EEEEEENS_16reverse_iteratorIPS6_EEEEE10__completeB8ue170006Ev, symObjAddr: 0x4CD4, symBinAddr: 0x1000053A0, symSize: 0x1C }
  - { offsetInCU: 0x14BA2, offset: 0x14BA2, size: 0x8, addend: 0x0, symName: __ZNSt3__128__exception_guard_exceptionsINS_29_AllocatorDestroyRangeReverseINS_9allocatorINS_6vectorI6EntityNS2_IS4_EEEEEENS_16reverse_iteratorIPS6_EEEEED1B8ue170006Ev, symObjAddr: 0x4CF0, symBinAddr: 0x1000053BC, symSize: 0x2C }
  - { offsetInCU: 0x14BCC, offset: 0x14BCC, size: 0x8, addend: 0x0, symName: __ZNSt3__128__exception_guard_exceptionsINS_29_AllocatorDestroyRangeReverseINS_9allocatorINS_6vectorI6EntityNS2_IS4_EEEEEENS_16reverse_iteratorIPS6_EEEEEC1B8ue170006ESB_, symObjAddr: 0x4D1C, symBinAddr: 0x1000053E8, symSize: 0x34 }
  - { offsetInCU: 0x14C05, offset: 0x14C05, size: 0x8, addend: 0x0, symName: __ZNSt3__128__exception_guard_exceptionsINS_29_AllocatorDestroyRangeReverseINS_9allocatorINS_6vectorI6EntityNS2_IS4_EEEEEENS_16reverse_iteratorIPS6_EEEEEC2B8ue170006ESB_, symObjAddr: 0x4D50, symBinAddr: 0x10000541C, symSize: 0x30 }
  - { offsetInCU: 0x14C3E, offset: 0x14C3E, size: 0x8, addend: 0x0, symName: __ZNSt3__129_AllocatorDestroyRangeReverseINS_9allocatorINS_6vectorI6EntityNS1_IS3_EEEEEENS_16reverse_iteratorIPS5_EEEC2B8ue170006ERS6_RS9_SC_, symObjAddr: 0x4D80, symBinAddr: 0x10000544C, symSize: 0x38 }
  - { offsetInCU: 0x14C95, offset: 0x14C95, size: 0x8, addend: 0x0, symName: __ZNSt3__19allocatorINS_6vectorI6EntityNS0_IS2_EEEEE9constructB8ue170006IS4_JS4_EEEvPT_DpOT0_, symObjAddr: 0x4DB8, symBinAddr: 0x100005484, symSize: 0x30 }
  - { offsetInCU: 0x14CEB, offset: 0x14CEB, size: 0x8, addend: 0x0, symName: __ZNSt3__16vectorI6EntityNS_9allocatorIS1_EEEC1B8ue170006EOS4_, symObjAddr: 0x4DE8, symBinAddr: 0x1000054B4, symSize: 0x34 }
  - { offsetInCU: 0x14D26, offset: 0x14D26, size: 0x8, addend: 0x0, symName: __ZNSt3__16vectorI6EntityNS_9allocatorIS1_EEEC2B8ue170006EOS4_, symObjAddr: 0x4E1C, symBinAddr: 0x1000054E8, symSize: 0xC4 }
  - { offsetInCU: 0x14D66, offset: 0x14D66, size: 0x8, addend: 0x0, symName: __ZNSt3__119__to_address_helperINS_16reverse_iteratorIPNS_6vectorI6EntityNS_9allocatorIS3_EEEEEEvE6__callB8ue170006ERKS8_, symObjAddr: 0x4EE0, symBinAddr: 0x1000055AC, symSize: 0x38 }
  - { offsetInCU: 0x14D89, offset: 0x14D89, size: 0x8, addend: 0x0, symName: __ZNKSt3__116reverse_iteratorIPNS_6vectorI6EntityNS_9allocatorIS2_EEEEEptB8ue170006Ev, symObjAddr: 0x4F18, symBinAddr: 0x1000055E4, symSize: 0x24 }
  - { offsetInCU: 0x14DAF, offset: 0x14DAF, size: 0x8, addend: 0x0, symName: __ZNSt3__128__exception_guard_exceptionsINS_29_AllocatorDestroyRangeReverseINS_9allocatorINS_6vectorI6EntityNS2_IS4_EEEEEENS_16reverse_iteratorIPS6_EEEEED2B8ue170006Ev, symObjAddr: 0x4F3C, symBinAddr: 0x100005608, symSize: 0x50 }
  - { offsetInCU: 0x14DD9, offset: 0x14DD9, size: 0x8, addend: 0x0, symName: __ZNKSt3__129_AllocatorDestroyRangeReverseINS_9allocatorINS_6vectorI6EntityNS1_IS3_EEEEEENS_16reverse_iteratorIPS5_EEEclB8ue170006Ev, symObjAddr: 0x4F8C, symBinAddr: 0x100005658, symSize: 0xB4 }
  - { offsetInCU: 0x14E00, offset: 0x14E00, size: 0x8, addend: 0x0, symName: __ZNSt3__116reverse_iteratorINS0_IPNS_6vectorI6EntityNS_9allocatorIS2_EEEEEEEC1B8ue170006ES7_, symObjAddr: 0x50B0, symBinAddr: 0x10000577C, symSize: 0x3C }
  - { offsetInCU: 0x14E38, offset: 0x14E38, size: 0x8, addend: 0x0, symName: __ZNSt3__116allocator_traitsINS_9allocatorINS_6vectorI6EntityNS1_IS3_EEEEEEE7destroyB8ue170006IS5_vEEvRS6_PT_, symObjAddr: 0x514C, symBinAddr: 0x100005818, symSize: 0x2C }
  - { offsetInCU: 0x14E75, offset: 0x14E75, size: 0x8, addend: 0x0, symName: __ZNSt3__116reverse_iteratorINS0_IPNS_6vectorI6EntityNS_9allocatorIS2_EEEEEEEppB8ue170006Ev, symObjAddr: 0x519C, symBinAddr: 0x100005868, symSize: 0x30 }
  - { offsetInCU: 0x14E9B, offset: 0x14E9B, size: 0x8, addend: 0x0, symName: __ZNKSt3__116reverse_iteratorINS0_IPNS_6vectorI6EntityNS_9allocatorIS2_EEEEEEE4baseB8ue170006Ev, symObjAddr: 0x51CC, symBinAddr: 0x100005898, symSize: 0x24 }
  - { offsetInCU: 0x14EC1, offset: 0x14EC1, size: 0x8, addend: 0x0, symName: __ZNSt3__19allocatorINS_6vectorI6EntityNS0_IS2_EEEEE7destroyB8ue170006EPS4_, symObjAddr: 0x51F0, symBinAddr: 0x1000058BC, symSize: 0x28 }
  - { offsetInCU: 0x14EFA, offset: 0x14EFA, size: 0x8, addend: 0x0, symName: __ZNSt3__119__to_address_helperINS_16reverse_iteratorINS1_IPNS_6vectorI6EntityNS_9allocatorIS3_EEEEEEEEvE6__callB8ue170006ERKS9_, symObjAddr: 0x5218, symBinAddr: 0x1000058E4, symSize: 0x38 }
  - { offsetInCU: 0x14F1D, offset: 0x14F1D, size: 0x8, addend: 0x0, symName: __ZNKSt3__116reverse_iteratorINS0_IPNS_6vectorI6EntityNS_9allocatorIS2_EEEEEEEptB8ue170006Ev, symObjAddr: 0x5250, symBinAddr: 0x10000591C, symSize: 0x24 }
  - { offsetInCU: 0x14F43, offset: 0x14F43, size: 0x8, addend: 0x0, symName: __ZNKSt3__116reverse_iteratorINS0_IPNS_6vectorI6EntityNS_9allocatorIS2_EEEEEEEdeB8ue170006Ev, symObjAddr: 0x5274, symBinAddr: 0x100005940, symSize: 0x34 }
  - { offsetInCU: 0x14F77, offset: 0x14F77, size: 0x8, addend: 0x0, symName: __ZNSt3__116reverse_iteratorIPNS_6vectorI6EntityNS_9allocatorIS2_EEEEEmmB8ue170006Ev, symObjAddr: 0x52A8, symBinAddr: 0x100005974, symSize: 0x20 }
  - { offsetInCU: 0x14F9D, offset: 0x14F9D, size: 0x8, addend: 0x0, symName: __ZNSt3__116reverse_iteratorINS0_IPNS_6vectorI6EntityNS_9allocatorIS2_EEEEEEEC2B8ue170006ES7_, symObjAddr: 0x52C8, symBinAddr: 0x100005994, symSize: 0x2C }
  - { offsetInCU: 0x14FD5, offset: 0x14FD5, size: 0x8, addend: 0x0, symName: __ZNSt3__116reverse_iteratorIPNS_6vectorI6EntityNS_9allocatorIS2_EEEEEC2B8ue170006ES6_, symObjAddr: 0x52F4, symBinAddr: 0x1000059C0, symSize: 0x28 }
  - { offsetInCU: 0x1500D, offset: 0x1500D, size: 0x8, addend: 0x0, symName: __ZNSt3__114__split_bufferINS_6vectorI6EntityNS_9allocatorIS2_EEEERNS3_IS5_EEED2Ev, symObjAddr: 0x531C, symBinAddr: 0x1000059E8, symSize: 0x8C }
  - { offsetInCU: 0x15039, offset: 0x15039, size: 0x8, addend: 0x0, symName: __ZNSt3__114__split_bufferINS_6vectorI6EntityNS_9allocatorIS2_EEEERNS3_IS5_EEE5clearB8ue170006Ev, symObjAddr: 0x53A8, symBinAddr: 0x100005A74, symSize: 0x28 }
  - { offsetInCU: 0x1505F, offset: 0x1505F, size: 0x8, addend: 0x0, symName: __ZNSt3__116allocator_traitsINS_9allocatorINS_6vectorI6EntityNS1_IS3_EEEEEEE10deallocateB8ue170006ERS6_PS5_m, symObjAddr: 0x53D0, symBinAddr: 0x100005A9C, symSize: 0x34 }
  - { offsetInCU: 0x150A1, offset: 0x150A1, size: 0x8, addend: 0x0, symName: __ZNKSt3__114__split_bufferINS_6vectorI6EntityNS_9allocatorIS2_EEEERNS3_IS5_EEE8capacityB8ue170006Ev, symObjAddr: 0x5404, symBinAddr: 0x100005AD0, symSize: 0x40 }
  - { offsetInCU: 0x150C7, offset: 0x150C7, size: 0x8, addend: 0x0, symName: __ZNSt3__114__split_bufferINS_6vectorI6EntityNS_9allocatorIS2_EEEERNS3_IS5_EEE17__destruct_at_endB8ue170006EPS5_, symObjAddr: 0x5444, symBinAddr: 0x100005B10, symSize: 0x2C }
  - { offsetInCU: 0x150FB, offset: 0x150FB, size: 0x8, addend: 0x0, symName: __ZNSt3__114__split_bufferINS_6vectorI6EntityNS_9allocatorIS2_EEEERNS3_IS5_EEE17__destruct_at_endB8ue170006EPS5_NS_17integral_constantIbLb0EEE, symObjAddr: 0x5470, symBinAddr: 0x100005B3C, symSize: 0x80 }
  - { offsetInCU: 0x1513B, offset: 0x1513B, size: 0x8, addend: 0x0, symName: __ZNSt3__19allocatorINS_6vectorI6EntityNS0_IS2_EEEEE10deallocateB8ue170006EPS4_m, symObjAddr: 0x54F0, symBinAddr: 0x100005BBC, symSize: 0x44 }
  - { offsetInCU: 0x1517D, offset: 0x1517D, size: 0x8, addend: 0x0, symName: __ZNKSt3__114__split_bufferINS_6vectorI6EntityNS_9allocatorIS2_EEEERNS3_IS5_EEE9__end_capB8ue170006Ev, symObjAddr: 0x5534, symBinAddr: 0x100005C00, symSize: 0x28 }
  - { offsetInCU: 0x151A3, offset: 0x151A3, size: 0x8, addend: 0x0, symName: __ZNKSt3__117__compressed_pairIPNS_6vectorI6EntityNS_9allocatorIS2_EEEERNS3_IS5_EEE5firstB8ue170006Ev, symObjAddr: 0x555C, symBinAddr: 0x100005C28, symSize: 0x24 }
  - { offsetInCU: 0x151C9, offset: 0x151C9, size: 0x8, addend: 0x0, symName: __ZNSt3__16vectorINS0_I6EntityNS_9allocatorIS1_EEEENS2_IS4_EEE22__base_destruct_at_endB8ue170006EPS4_, symObjAddr: 0x5580, symBinAddr: 0x100005C4C, symSize: 0x8C }
  - { offsetInCU: 0x1520D, offset: 0x1520D, size: 0x8, addend: 0x0, symName: __ZNKSt3__16vectorINS0_I6EntityNS_9allocatorIS1_EEEENS2_IS4_EEE17__annotate_shrinkB8ue170006Em, symObjAddr: 0x560C, symBinAddr: 0x100005CD8, symSize: 0xD0 }
  - { offsetInCU: 0x15242, offset: 0x15242, size: 0x8, addend: 0x0, symName: __ZNSt3__16vectorI6EntityNS_9allocatorIS1_EEEC2EmRKS1_, symObjAddr: 0x56DC, symBinAddr: 0x100005DA8, symSize: 0xDC }
  - { offsetInCU: 0x152A1, offset: 0x152A1, size: 0x8, addend: 0x0, symName: __ZNSt3__117__compressed_pairIP6EntityNS_9allocatorIS1_EEEC1B8ue170006IDnNS_18__default_init_tagEEEOT_OT0_, symObjAddr: 0x57B8, symBinAddr: 0x100005E84, symSize: 0x3C }
  - { offsetInCU: 0x152F9, offset: 0x152F9, size: 0x8, addend: 0x0, symName: __ZNSt3__16vectorI6EntityNS_9allocatorIS1_EEE18__construct_at_endEmRKS1_, symObjAddr: 0x57F4, symBinAddr: 0x100005EC0, symSize: 0xD0 }
  - { offsetInCU: 0x1537B, offset: 0x1537B, size: 0x8, addend: 0x0, symName: __ZNSt3__117__compressed_pairIP6EntityNS_9allocatorIS1_EEEC2B8ue170006IDnNS_18__default_init_tagEEEOT_OT0_, symObjAddr: 0x58C4, symBinAddr: 0x100005F90, symSize: 0x40 }
  - { offsetInCU: 0x153D3, offset: 0x153D3, size: 0x8, addend: 0x0, symName: __ZNSt3__122__compressed_pair_elemINS_9allocatorI6EntityEELi1ELb1EEC2B8ue170006ENS_18__default_init_tagE, symObjAddr: 0x5904, symBinAddr: 0x100005FD0, symSize: 0x2C }
  - { offsetInCU: 0x15407, offset: 0x15407, size: 0x8, addend: 0x0, symName: __ZNSt3__19allocatorI6EntityEC2B8ue170006Ev, symObjAddr: 0x5930, symBinAddr: 0x100005FFC, symSize: 0x2C }
  - { offsetInCU: 0x15431, offset: 0x15431, size: 0x8, addend: 0x0, symName: __ZNSt3__116__non_trivial_ifILb1ENS_9allocatorI6EntityEEEC2B8ue170006Ev, symObjAddr: 0x595C, symBinAddr: 0x100006028, symSize: 0x14 }
  - { offsetInCU: 0x1545B, offset: 0x1545B, size: 0x8, addend: 0x0, symName: __ZNSt3__116allocator_traitsINS_9allocatorI6EntityEEE9constructB8ue170006IS2_JRKS2_EvEEvRS3_PT_DpOT0_, symObjAddr: 0x5970, symBinAddr: 0x10000603C, symSize: 0x34 }
  - { offsetInCU: 0x154B2, offset: 0x154B2, size: 0x8, addend: 0x0, symName: __ZNSt3__19allocatorI6EntityE9constructB8ue170006IS1_JRKS1_EEEvPT_DpOT0_, symObjAddr: 0x59A4, symBinAddr: 0x100006070, symSize: 0x28 }
  - { offsetInCU: 0x15508, offset: 0x15508, size: 0x8, addend: 0x0, symName: __ZNSt3__16vectorI6EntityNS_9allocatorIS1_EEED2B8ue170006Ev, symObjAddr: 0x59CC, symBinAddr: 0x100006098, symSize: 0x40 }
  - { offsetInCU: 0x15532, offset: 0x15532, size: 0x8, addend: 0x0, symName: __ZNSt3__16vectorINS0_I6EntityNS_9allocatorIS1_EEEENS2_IS4_EEED2B8ue170006Ev, symObjAddr: 0x5A0C, symBinAddr: 0x1000060D8, symSize: 0x44 }
  - { offsetInCU: 0x1555C, offset: 0x1555C, size: 0x8, addend: 0x0, symName: __ZNSt3__16vectorINS0_I6EntityNS_9allocatorIS1_EEEENS2_IS4_EEE16__destroy_vectorC1B8ue170006ERS6_, symObjAddr: 0x5A50, symBinAddr: 0x10000611C, symSize: 0x34 }
  - { offsetInCU: 0x15595, offset: 0x15595, size: 0x8, addend: 0x0, symName: __ZNSt3__16vectorINS0_I6EntityNS_9allocatorIS1_EEEENS2_IS4_EEE16__destroy_vectorclB8ue170006Ev, symObjAddr: 0x5A84, symBinAddr: 0x100006150, symSize: 0x90 }
  - { offsetInCU: 0x155BB, offset: 0x155BB, size: 0x8, addend: 0x0, symName: __ZNSt3__16vectorINS0_I6EntityNS_9allocatorIS1_EEEENS2_IS4_EEE16__destroy_vectorC2B8ue170006ERS6_, symObjAddr: 0x5B14, symBinAddr: 0x1000061E0, symSize: 0x20 }
  - { offsetInCU: 0x155F4, offset: 0x155F4, size: 0x8, addend: 0x0, symName: __ZNSt3__16vectorINS0_I6EntityNS_9allocatorIS1_EEEENS2_IS4_EEE7__clearB8ue170006Ev, symObjAddr: 0x5B34, symBinAddr: 0x100006200, symSize: 0x28 }
  - { offsetInCU: 0x15733, offset: 0x15733, size: 0x8, addend: 0x0, symName: __ZNSt3__114basic_ifstreamIcNS_11char_traitsIcEEEC1EPKcj, symObjAddr: 0x5B5C, symBinAddr: 0x100006228, symSize: 0x16C }
  - { offsetInCU: 0x1577D, offset: 0x1577D, size: 0x8, addend: 0x0, symName: __ZNKSt3__114basic_ifstreamIcNS_11char_traitsIcEEE7is_openEv, symObjAddr: 0x5CC8, symBinAddr: 0x100006394, symSize: 0x2C }
  - { offsetInCU: 0x157A5, offset: 0x157A5, size: 0x8, addend: 0x0, symName: __ZNSt3__113basic_ostreamIcNS_11char_traitsIcEEElsB8ue170006EPFRS3_S4_E, symObjAddr: 0x5CF4, symBinAddr: 0x1000063C0, symSize: 0x2C }
  - { offsetInCU: 0x157D9, offset: 0x157D9, size: 0x8, addend: 0x0, symName: __ZNSt3__112basic_stringIcNS_11char_traitsIcEENS_9allocatorIcEEEC1B8ue170006Ev, symObjAddr: 0x5D78, symBinAddr: 0x100006444, symSize: 0x2C }
  - { offsetInCU: 0x15803, offset: 0x15803, size: 0x8, addend: 0x0, symName: __ZNSt3__112basic_stringIcNS_11char_traitsIcEENS_9allocatorIcEEEixB8ue170006Em, symObjAddr: 0x5E00, symBinAddr: 0x1000064CC, symSize: 0x30 }
  - { offsetInCU: 0x15838, offset: 0x15838, size: 0x8, addend: 0x0, symName: __ZNSt3__114basic_ifstreamIcNS_11char_traitsIcEEE5closeEv, symObjAddr: 0x5E30, symBinAddr: 0x1000064FC, symSize: 0x58 }
  - { offsetInCU: 0x15865, offset: 0x15865, size: 0x8, addend: 0x0, symName: __ZNSt3__114basic_ifstreamIcNS_11char_traitsIcEEED1Ev, symObjAddr: 0x5E88, symBinAddr: 0x100006554, symSize: 0x40 }
  - { offsetInCU: 0x15892, offset: 0x15892, size: 0x8, addend: 0x0, symName: __ZNSt3__19basic_iosIcNS_11char_traitsIcEEEC2B8ue170006Ev, symObjAddr: 0x5EC8, symBinAddr: 0x100006594, symSize: 0x44 }
  - { offsetInCU: 0x158BC, offset: 0x158BC, size: 0x8, addend: 0x0, symName: __ZNSt3__113basic_istreamIcNS_11char_traitsIcEEEC2B8ue170006EPNS_15basic_streambufIcS2_EE, symObjAddr: 0x5F0C, symBinAddr: 0x1000065D8, symSize: 0x64 }
  - { offsetInCU: 0x15901, offset: 0x15901, size: 0x8, addend: 0x0, symName: __ZNSt3__19basic_iosIcNS_11char_traitsIcEEE8setstateB8ue170006Ej, symObjAddr: 0x5F70, symBinAddr: 0x10000663C, symSize: 0x2C }
  - { offsetInCU: 0x15936, offset: 0x15936, size: 0x8, addend: 0x0, symName: __ZNSt3__18ios_baseC2B8ue170006Ev, symObjAddr: 0x5F9C, symBinAddr: 0x100006668, symSize: 0x24 }
  - { offsetInCU: 0x15960, offset: 0x15960, size: 0x8, addend: 0x0, symName: __ZNSt3__19basic_iosIcNS_11char_traitsIcEEE4initB8ue170006EPNS_15basic_streambufIcS2_EE, symObjAddr: 0x5FC0, symBinAddr: 0x10000668C, symSize: 0x44 }
  - { offsetInCU: 0x15997, offset: 0x15997, size: 0x8, addend: 0x0, symName: __ZNSt3__111char_traitsIcE3eofB8ue170006Ev, symObjAddr: 0x6004, symBinAddr: 0x1000066D0, symSize: 0x8 }
  - { offsetInCU: 0x159AB, offset: 0x159AB, size: 0x8, addend: 0x0, symName: __ZNSt3__18ios_base8setstateB8ue170006Ej, symObjAddr: 0x600C, symBinAddr: 0x1000066D8, symSize: 0x34 }
  - { offsetInCU: 0x159E2, offset: 0x159E2, size: 0x8, addend: 0x0, symName: __ZNKSt3__113basic_filebufIcNS_11char_traitsIcEEE7is_openEv, symObjAddr: 0x6040, symBinAddr: 0x10000670C, symSize: 0x24 }
  - { offsetInCU: 0x15A0A, offset: 0x15A0A, size: 0x8, addend: 0x0, symName: __ZNKSt3__19basic_iosIcNS_11char_traitsIcEEE5widenB8ue170006Ec, symObjAddr: 0x6064, symBinAddr: 0x100006730, symSize: 0x84 }
  - { offsetInCU: 0x15A73, offset: 0x15A73, size: 0x8, addend: 0x0, symName: __ZNKSt3__15ctypeIcE5widenB8ue170006Ec, symObjAddr: 0x6114, symBinAddr: 0x1000067E0, symSize: 0x38 }
  - { offsetInCU: 0x15AA8, offset: 0x15AA8, size: 0x8, addend: 0x0, symName: __ZNSt3__112basic_stringIcNS_11char_traitsIcEENS_9allocatorIcEEEC2B8ue170006Ev, symObjAddr: 0x614C, symBinAddr: 0x100006818, symSize: 0x48 }
  - { offsetInCU: 0x15AD2, offset: 0x15AD2, size: 0x8, addend: 0x0, symName: __ZNSt3__112basic_stringIcNS_11char_traitsIcEENS_9allocatorIcEEE14__default_initB8ue170006Ev, symObjAddr: 0x6194, symBinAddr: 0x100006860, symSize: 0x40 }
  - { offsetInCU: 0x15AF8, offset: 0x15AF8, size: 0x8, addend: 0x0, symName: __ZNSt3__117__compressed_pairINS_12basic_stringIcNS_11char_traitsIcEENS_9allocatorIcEEE5__repES5_E5firstB8ue170006Ev, symObjAddr: 0x61D4, symBinAddr: 0x1000068A0, symSize: 0x24 }
  - { offsetInCU: 0x15B1E, offset: 0x15B1E, size: 0x8, addend: 0x0, symName: __ZNSt3__122__compressed_pair_elemINS_12basic_stringIcNS_11char_traitsIcEENS_9allocatorIcEEE5__repELi0ELb0EE5__getB8ue170006Ev, symObjAddr: 0x61F8, symBinAddr: 0x1000068C4, symSize: 0x14 }
  - { offsetInCU: 0x15B62, offset: 0x15B62, size: 0x8, addend: 0x0, symName: __ZNKSt3__113basic_istreamIcNS_11char_traitsIcEEE6sentrycvbB8ue170006Ev, symObjAddr: 0x6444, symBinAddr: 0x100006B10, symSize: 0x1C }
  - { offsetInCU: 0x15B88, offset: 0x15B88, size: 0x8, addend: 0x0, symName: __ZNSt3__112basic_stringIcNS_11char_traitsIcEENS_9allocatorIcEEE5clearB8ue170006Ev, symObjAddr: 0x6460, symBinAddr: 0x100006B2C, symSize: 0x78 }
  - { offsetInCU: 0x15BB0, offset: 0x15BB0, size: 0x8, addend: 0x0, symName: __ZNKSt3__19basic_iosIcNS_11char_traitsIcEEE5rdbufB8ue170006Ev, symObjAddr: 0x64D8, symBinAddr: 0x100006BA4, symSize: 0x24 }
  - { offsetInCU: 0x15BD8, offset: 0x15BD8, size: 0x8, addend: 0x0, symName: __ZNSt3__115basic_streambufIcNS_11char_traitsIcEEE6sbumpcB8ue170006Ev, symObjAddr: 0x64FC, symBinAddr: 0x100006BC8, symSize: 0x78 }
  - { offsetInCU: 0x15BFE, offset: 0x15BFE, size: 0x8, addend: 0x0, symName: __ZNSt3__111char_traitsIcE11eq_int_typeB8ue170006Eii, symObjAddr: 0x6574, symBinAddr: 0x100006C40, symSize: 0x28 }
  - { offsetInCU: 0x15C31, offset: 0x15C31, size: 0x8, addend: 0x0, symName: __ZNSt3__111char_traitsIcE12to_char_typeB8ue170006Ei, symObjAddr: 0x659C, symBinAddr: 0x100006C68, symSize: 0x18 }
  - { offsetInCU: 0x15C54, offset: 0x15C54, size: 0x8, addend: 0x0, symName: __ZNSt3__111char_traitsIcE2eqEcc, symObjAddr: 0x65B4, symBinAddr: 0x100006C80, symSize: 0x28 }
  - { offsetInCU: 0x15C85, offset: 0x15C85, size: 0x8, addend: 0x0, symName: __ZNKSt3__112basic_stringIcNS_11char_traitsIcEENS_9allocatorIcEEE4sizeB8ue170006Ev, symObjAddr: 0x65DC, symBinAddr: 0x100006CA8, symSize: 0x54 }
  - { offsetInCU: 0x15CAB, offset: 0x15CAB, size: 0x8, addend: 0x0, symName: __ZNKSt3__112basic_stringIcNS_11char_traitsIcEENS_9allocatorIcEEE8max_sizeB8ue170006Ev, symObjAddr: 0x6630, symBinAddr: 0x100006CFC, symSize: 0xAC }
  - { offsetInCU: 0x15CFE, offset: 0x15CFE, size: 0x8, addend: 0x0, symName: __ZNSt3__18ios_base18__setstate_nothrowB8ue170006Ej, symObjAddr: 0x66DC, symBinAddr: 0x100006DA8, symSize: 0x64 }
  - { offsetInCU: 0x15D33, offset: 0x15D33, size: 0x8, addend: 0x0, symName: __ZNKSt3__19basic_iosIcNS_11char_traitsIcEEE10exceptionsB8ue170006Ev, symObjAddr: 0x6740, symBinAddr: 0x100006E0C, symSize: 0x24 }
  - { offsetInCU: 0x15D59, offset: 0x15D59, size: 0x8, addend: 0x0, symName: __ZNKSt3__112basic_stringIcNS_11char_traitsIcEENS_9allocatorIcEEE9__is_longB8ue170006Ev, symObjAddr: 0x6764, symBinAddr: 0x100006E30, symSize: 0x38 }
  - { offsetInCU: 0x15D7F, offset: 0x15D7F, size: 0x8, addend: 0x0, symName: __ZNSt3__111char_traitsIcE6assignB8ue170006ERcRKc, symObjAddr: 0x679C, symBinAddr: 0x100006E68, symSize: 0x24 }
  - { offsetInCU: 0x15DB0, offset: 0x15DB0, size: 0x8, addend: 0x0, symName: __ZNSt3__112basic_stringIcNS_11char_traitsIcEENS_9allocatorIcEEE18__get_long_pointerB8ue170006Ev, symObjAddr: 0x67C0, symBinAddr: 0x100006E8C, symSize: 0x28 }
  - { offsetInCU: 0x15DD6, offset: 0x15DD6, size: 0x8, addend: 0x0, symName: __ZNSt3__112basic_stringIcNS_11char_traitsIcEENS_9allocatorIcEEE15__set_long_sizeB8ue170006Em, symObjAddr: 0x67E8, symBinAddr: 0x100006EB4, symSize: 0x38 }
  - { offsetInCU: 0x15E0B, offset: 0x15E0B, size: 0x8, addend: 0x0, symName: __ZNSt3__112basic_stringIcNS_11char_traitsIcEENS_9allocatorIcEEE19__get_short_pointerB8ue170006Ev, symObjAddr: 0x6820, symBinAddr: 0x100006EEC, symSize: 0x28 }
  - { offsetInCU: 0x15E31, offset: 0x15E31, size: 0x8, addend: 0x0, symName: __ZNSt3__112basic_stringIcNS_11char_traitsIcEENS_9allocatorIcEEE16__set_short_sizeB8ue170006Em, symObjAddr: 0x6848, symBinAddr: 0x100006F14, symSize: 0x78 }
  - { offsetInCU: 0x15E66, offset: 0x15E66, size: 0x8, addend: 0x0, symName: __ZNKSt3__117__compressed_pairINS_12basic_stringIcNS_11char_traitsIcEENS_9allocatorIcEEE5__repES5_E5firstB8ue170006Ev, symObjAddr: 0x68C0, symBinAddr: 0x100006F8C, symSize: 0x24 }
  - { offsetInCU: 0x15E8C, offset: 0x15E8C, size: 0x8, addend: 0x0, symName: __ZNKSt3__122__compressed_pair_elemINS_12basic_stringIcNS_11char_traitsIcEENS_9allocatorIcEEE5__repELi0ELb0EE5__getB8ue170006Ev, symObjAddr: 0x68E4, symBinAddr: 0x100006FB0, symSize: 0x14 }
  - { offsetInCU: 0x15EB2, offset: 0x15EB2, size: 0x8, addend: 0x0, symName: __ZNSt3__114pointer_traitsIPcE10pointer_toB8ue170006ERc, symObjAddr: 0x68F8, symBinAddr: 0x100006FC4, symSize: 0x14 }
  - { offsetInCU: 0x15ED5, offset: 0x15ED5, size: 0x8, addend: 0x0, symName: __ZNKSt3__18ios_base5rdbufB8ue170006Ev, symObjAddr: 0x690C, symBinAddr: 0x100006FD8, symSize: 0x18 }
  - { offsetInCU: 0x15EFB, offset: 0x15EFB, size: 0x8, addend: 0x0, symName: __ZNSt3__111char_traitsIcE11to_int_typeB8ue170006Ec, symObjAddr: 0x6924, symBinAddr: 0x100006FF0, symSize: 0x14 }
  - { offsetInCU: 0x15F1F, offset: 0x15F1F, size: 0x8, addend: 0x0, symName: __ZNKSt3__112basic_stringIcNS_11char_traitsIcEENS_9allocatorIcEEE15__get_long_sizeB8ue170006Ev, symObjAddr: 0x6938, symBinAddr: 0x100007004, symSize: 0x28 }
  - { offsetInCU: 0x15F45, offset: 0x15F45, size: 0x8, addend: 0x0, symName: __ZNKSt3__112basic_stringIcNS_11char_traitsIcEENS_9allocatorIcEEE16__get_short_sizeB8ue170006Ev, symObjAddr: 0x6960, symBinAddr: 0x10000702C, symSize: 0x34 }
  - { offsetInCU: 0x15F75, offset: 0x15F75, size: 0x8, addend: 0x0, symName: __ZNSt3__116allocator_traitsINS_9allocatorIcEEE8max_sizeB8ue170006IS2_vEEmRKS2_, symObjAddr: 0x6994, symBinAddr: 0x100007060, symSize: 0x24 }
  - { offsetInCU: 0x15FA3, offset: 0x15FA3, size: 0x8, addend: 0x0, symName: __ZNKSt3__112basic_stringIcNS_11char_traitsIcEENS_9allocatorIcEEE7__allocB8ue170006Ev, symObjAddr: 0x69B8, symBinAddr: 0x100007084, symSize: 0x24 }
  - { offsetInCU: 0x15FC9, offset: 0x15FC9, size: 0x8, addend: 0x0, symName: __ZNSt3__114numeric_limitsImE3maxB8ue170006Ev, symObjAddr: 0x69DC, symBinAddr: 0x1000070A8, symSize: 0x14 }
  - { offsetInCU: 0x15FDD, offset: 0x15FDD, size: 0x8, addend: 0x0, symName: __ZNKSt3__19allocatorIcE8max_sizeB8ue170006Ev, symObjAddr: 0x69F0, symBinAddr: 0x1000070BC, symSize: 0x14 }
  - { offsetInCU: 0x16003, offset: 0x16003, size: 0x8, addend: 0x0, symName: __ZNKSt3__117__compressed_pairINS_12basic_stringIcNS_11char_traitsIcEENS_9allocatorIcEEE5__repES5_E6secondB8ue170006Ev, symObjAddr: 0x6A04, symBinAddr: 0x1000070D0, symSize: 0x24 }
  - { offsetInCU: 0x16029, offset: 0x16029, size: 0x8, addend: 0x0, symName: __ZNKSt3__122__compressed_pair_elemINS_9allocatorIcEELi1ELb1EE5__getB8ue170006Ev, symObjAddr: 0x6A28, symBinAddr: 0x1000070F4, symSize: 0x14 }
  - { offsetInCU: 0x1604F, offset: 0x1604F, size: 0x8, addend: 0x0, symName: __ZNSt3__123__libcpp_numeric_limitsImLb1EE3maxB8ue170006Ev, symObjAddr: 0x6A3C, symBinAddr: 0x100007108, symSize: 0x8 }
  - { offsetInCU: 0x16063, offset: 0x16063, size: 0x8, addend: 0x0, symName: __ZNKSt3__18ios_base10exceptionsB8ue170006Ev, symObjAddr: 0x6A44, symBinAddr: 0x100007110, symSize: 0x18 }
  - { offsetInCU: 0x1608B, offset: 0x1608B, size: 0x8, addend: 0x0, symName: __ZNSt3__112basic_stringIcNS_11char_traitsIcEENS_9allocatorIcEEE13__get_pointerB8ue170006Ev, symObjAddr: 0x6A5C, symBinAddr: 0x100007128, symSize: 0x54 }
  - { offsetInCU: 0x160B1, offset: 0x160B1, size: 0x8, addend: 0x0, symName: __ZNSt3__114basic_ifstreamIcNS_11char_traitsIcEEED2Ev, symObjAddr: 0x6AB0, symBinAddr: 0x10000717C, symSize: 0x64 }
  - { offsetInCU: 0x160EB, offset: 0x160EB, size: 0x8, addend: 0x0, symName: __ZTv0_n24_NSt3__114basic_ifstreamIcNS_11char_traitsIcEEED1Ev, symObjAddr: 0x6B14, symBinAddr: 0x1000071E0, symSize: 0x28 }
  - { offsetInCU: 0x16102, offset: 0x16102, size: 0x8, addend: 0x0, symName: __ZNSt3__16vectorINS0_I6EntityNS_9allocatorIS1_EEEENS2_IS4_EEE5beginB8ue170006Ev, symObjAddr: 0x6B3C, symBinAddr: 0x100007208, symSize: 0x30 }
  - { offsetInCU: 0x1612A, offset: 0x1612A, size: 0x8, addend: 0x0, symName: __ZNSt3__16vectorINS0_I6EntityNS_9allocatorIS1_EEEENS2_IS4_EEE3endB8ue170006Ev, symObjAddr: 0x6B6C, symBinAddr: 0x100007238, symSize: 0x30 }
  - { offsetInCU: 0x16152, offset: 0x16152, size: 0x8, addend: 0x0, symName: __ZNKSt3__111__wrap_iterIPNS_6vectorI6EntityNS_9allocatorIS2_EEEEEdeB8ue170006Ev, symObjAddr: 0x6BD0, symBinAddr: 0x10000729C, symSize: 0x18 }
  - { offsetInCU: 0x16178, offset: 0x16178, size: 0x8, addend: 0x0, symName: __ZNKSt3__16vectorI6EntityNS_9allocatorIS1_EEE5beginB8ue170006Ev, symObjAddr: 0x6BE8, symBinAddr: 0x1000072B4, symSize: 0x30 }
  - { offsetInCU: 0x161A0, offset: 0x161A0, size: 0x8, addend: 0x0, symName: __ZNKSt3__16vectorI6EntityNS_9allocatorIS1_EEE3endB8ue170006Ev, symObjAddr: 0x6C18, symBinAddr: 0x1000072E4, symSize: 0x30 }
  - { offsetInCU: 0x161C8, offset: 0x161C8, size: 0x8, addend: 0x0, symName: __ZNKSt3__111__wrap_iterIPK6EntityEdeB8ue170006Ev, symObjAddr: 0x6C7C, symBinAddr: 0x100007348, symSize: 0x18 }
  - { offsetInCU: 0x161EE, offset: 0x161EE, size: 0x8, addend: 0x0, symName: __ZNSt3__111__wrap_iterIPK6EntityEppB8ue170006Ev, symObjAddr: 0x6C94, symBinAddr: 0x100007360, symSize: 0x20 }
  - { offsetInCU: 0x16214, offset: 0x16214, size: 0x8, addend: 0x0, symName: __ZNSt3__111__wrap_iterIPNS_6vectorI6EntityNS_9allocatorIS2_EEEEEppB8ue170006Ev, symObjAddr: 0x6CB4, symBinAddr: 0x100007380, symSize: 0x20 }
  - { offsetInCU: 0x1623A, offset: 0x1623A, size: 0x8, addend: 0x0, symName: __ZNSt3__16vectorINS0_I6EntityNS_9allocatorIS1_EEEENS2_IS4_EEE11__make_iterB8ue170006EPS4_, symObjAddr: 0x6CD4, symBinAddr: 0x1000073A0, symSize: 0x30 }
  - { offsetInCU: 0x1626F, offset: 0x1626F, size: 0x8, addend: 0x0, symName: __ZNSt3__111__wrap_iterIPNS_6vectorI6EntityNS_9allocatorIS2_EEEEEC1B8ue170006ES6_, symObjAddr: 0x6D04, symBinAddr: 0x1000073D0, symSize: 0x34 }
  - { offsetInCU: 0x162A7, offset: 0x162A7, size: 0x8, addend: 0x0, symName: __ZNSt3__111__wrap_iterIPNS_6vectorI6EntityNS_9allocatorIS2_EEEEEC2B8ue170006ES6_, symObjAddr: 0x6D38, symBinAddr: 0x100007404, symSize: 0x20 }
  - { offsetInCU: 0x162DF, offset: 0x162DF, size: 0x8, addend: 0x0, symName: __ZNKSt3__111__wrap_iterIPNS_6vectorI6EntityNS_9allocatorIS2_EEEEE4baseB8ue170006Ev, symObjAddr: 0x6DA0, symBinAddr: 0x10000746C, symSize: 0x18 }
  - { offsetInCU: 0x16305, offset: 0x16305, size: 0x8, addend: 0x0, symName: __ZNKSt3__16vectorI6EntityNS_9allocatorIS1_EEE11__make_iterB8ue170006EPKS1_, symObjAddr: 0x6DB8, symBinAddr: 0x100007484, symSize: 0x30 }
  - { offsetInCU: 0x1633A, offset: 0x1633A, size: 0x8, addend: 0x0, symName: __ZNSt3__111__wrap_iterIPK6EntityEC1B8ue170006ES3_, symObjAddr: 0x6DE8, symBinAddr: 0x1000074B4, symSize: 0x34 }
  - { offsetInCU: 0x16372, offset: 0x16372, size: 0x8, addend: 0x0, symName: __ZNSt3__111__wrap_iterIPK6EntityEC2B8ue170006ES3_, symObjAddr: 0x6E1C, symBinAddr: 0x1000074E8, symSize: 0x20 }
  - { offsetInCU: 0x163AA, offset: 0x163AA, size: 0x8, addend: 0x0, symName: __ZNKSt3__111__wrap_iterIPK6EntityE4baseB8ue170006Ev, symObjAddr: 0x6E84, symBinAddr: 0x100007550, symSize: 0x18 }
  - { offsetInCU: 0x163D0, offset: 0x163D0, size: 0x8, addend: 0x0, symName: __ZN3MapD2Ev, symObjAddr: 0x6E9C, symBinAddr: 0x100007568, symSize: 0x30 }
  - { offsetInCU: 0x163FC, offset: 0x163FC, size: 0x8, addend: 0x0, symName: __ZNSt3__123mersenne_twister_engineIjLm32ELm624ELm397ELm31ELj2567483615ELm11ELj4294967295ELm7ELj2636928640ELm15ELj4022730752ELm18ELj1812433253EEC2B8ue170006Ej, symObjAddr: 0x6ECC, symBinAddr: 0x100007598, symSize: 0x34 }
  - { offsetInCU: 0x16434, offset: 0x16434, size: 0x8, addend: 0x0, symName: __ZNSt3__123mersenne_twister_engineIjLm32ELm624ELm397ELm31ELj2567483615ELm11ELj4294967295ELm7ELj2636928640ELm15ELj4022730752ELm18ELj1812433253EE4seedEj, symObjAddr: 0x6F00, symBinAddr: 0x1000075CC, symSize: 0xC4 }
  - { offsetInCU: 0x16488, offset: 0x16488, size: 0x8, addend: 0x0, symName: __ZNSt3__123mersenne_twister_engineIjLm32ELm624ELm397ELm31ELj2567483615ELm11ELj4294967295ELm7ELj2636928640ELm15ELj4022730752ELm18ELj1812433253EE8__rshiftB8ue170006ILm30EEENS_9enable_ifIXltT_L_ZNS1_3_DtEEEjE4typeEj, symObjAddr: 0x6FC4, symBinAddr: 0x100007690, symSize: 0x18 }
  - { offsetInCU: 0x164B5, offset: 0x164B5, size: 0x8, addend: 0x0, symName: __ZNSt3__124uniform_int_distributionIiEC2B8ue170006Eii, symObjAddr: 0x6FDC, symBinAddr: 0x1000076A8, symSize: 0x3C }
  - { offsetInCU: 0x164FB, offset: 0x164FB, size: 0x8, addend: 0x0, symName: __ZNSt3__124uniform_int_distributionIiE10param_typeC1B8ue170006Eii, symObjAddr: 0x7018, symBinAddr: 0x1000076E4, symSize: 0x3C }
  - { offsetInCU: 0x16541, offset: 0x16541, size: 0x8, addend: 0x0, symName: __ZNSt3__124uniform_int_distributionIiE10param_typeC2B8ue170006Eii, symObjAddr: 0x7054, symBinAddr: 0x100007720, symSize: 0x2C }
  - { offsetInCU: 0x16587, offset: 0x16587, size: 0x8, addend: 0x0, symName: __ZNSt3__15queueINS_4pairIiiEENS_5dequeIS2_NS_9allocatorIS2_EEEEEC2B8ue170006Ev, symObjAddr: 0x7080, symBinAddr: 0x10000774C, symSize: 0x2C }
  - { offsetInCU: 0x165B1, offset: 0x165B1, size: 0x8, addend: 0x0, symName: __ZNSt3__15dequeINS_4pairIiiEENS_9allocatorIS2_EEEC1B8ue170006Ev, symObjAddr: 0x70AC, symBinAddr: 0x100007778, symSize: 0x2C }
  - { offsetInCU: 0x165DB, offset: 0x165DB, size: 0x8, addend: 0x0, symName: __ZNSt3__15dequeINS_4pairIiiEENS_9allocatorIS2_EEEC2B8ue170006Ev, symObjAddr: 0x70D8, symBinAddr: 0x1000077A4, symSize: 0x5C }
  - { offsetInCU: 0x16605, offset: 0x16605, size: 0x8, addend: 0x0, symName: __ZNSt3__114__split_bufferIPNS_4pairIiiEENS_9allocatorIS3_EEEC1B8ue170006Ev, symObjAddr: 0x7134, symBinAddr: 0x100007800, symSize: 0x2C }
  - { offsetInCU: 0x1662F, offset: 0x1662F, size: 0x8, addend: 0x0, symName: __ZNSt3__117__compressed_pairImNS_9allocatorINS_4pairIiiEEEEEC1B8ue170006IiNS_18__default_init_tagEEEOT_OT0_, symObjAddr: 0x7160, symBinAddr: 0x10000782C, symSize: 0x3C }
  - { offsetInCU: 0x16687, offset: 0x16687, size: 0x8, addend: 0x0, symName: __ZNSt3__114__split_bufferIPNS_4pairIiiEENS_9allocatorIS3_EEEC2B8ue170006Ev, symObjAddr: 0x719C, symBinAddr: 0x100007868, symSize: 0x50 }
  - { offsetInCU: 0x166B1, offset: 0x166B1, size: 0x8, addend: 0x0, symName: __ZNSt3__117__compressed_pairIPPNS_4pairIiiEENS_9allocatorIS3_EEEC1B8ue170006IDnNS_18__default_init_tagEEEOT_OT0_, symObjAddr: 0x71EC, symBinAddr: 0x1000078B8, symSize: 0x3C }
  - { offsetInCU: 0x16709, offset: 0x16709, size: 0x8, addend: 0x0, symName: __ZNSt3__117__compressed_pairIPPNS_4pairIiiEENS_9allocatorIS3_EEEC2B8ue170006IDnNS_18__default_init_tagEEEOT_OT0_, symObjAddr: 0x7228, symBinAddr: 0x1000078F4, symSize: 0x40 }
  - { offsetInCU: 0x16761, offset: 0x16761, size: 0x8, addend: 0x0, symName: __ZNSt3__122__compressed_pair_elemIPPNS_4pairIiiEELi0ELb0EEC2B8ue170006IDnvEEOT_, symObjAddr: 0x7268, symBinAddr: 0x100007934, symSize: 0x1C }
  - { offsetInCU: 0x167A3, offset: 0x167A3, size: 0x8, addend: 0x0, symName: __ZNSt3__122__compressed_pair_elemINS_9allocatorIPNS_4pairIiiEEEELi1ELb1EEC2B8ue170006ENS_18__default_init_tagE, symObjAddr: 0x7284, symBinAddr: 0x100007950, symSize: 0x2C }
  - { offsetInCU: 0x167D7, offset: 0x167D7, size: 0x8, addend: 0x0, symName: __ZNSt3__19allocatorIPNS_4pairIiiEEEC2B8ue170006Ev, symObjAddr: 0x72B0, symBinAddr: 0x10000797C, symSize: 0x2C }
  - { offsetInCU: 0x16801, offset: 0x16801, size: 0x8, addend: 0x0, symName: __ZNSt3__116__non_trivial_ifILb1ENS_9allocatorIPNS_4pairIiiEEEEEC2B8ue170006Ev, symObjAddr: 0x72DC, symBinAddr: 0x1000079A8, symSize: 0x14 }
  - { offsetInCU: 0x1682B, offset: 0x1682B, size: 0x8, addend: 0x0, symName: __ZNSt3__117__compressed_pairImNS_9allocatorINS_4pairIiiEEEEEC2B8ue170006IiNS_18__default_init_tagEEEOT_OT0_, symObjAddr: 0x72F0, symBinAddr: 0x1000079BC, symSize: 0x40 }
  - { offsetInCU: 0x16883, offset: 0x16883, size: 0x8, addend: 0x0, symName: __ZNSt3__122__compressed_pair_elemImLi0ELb0EEC2B8ue170006IivEEOT_, symObjAddr: 0x7330, symBinAddr: 0x1000079FC, symSize: 0x24 }
  - { offsetInCU: 0x168C5, offset: 0x168C5, size: 0x8, addend: 0x0, symName: __ZNSt3__122__compressed_pair_elemINS_9allocatorINS_4pairIiiEEEELi1ELb1EEC2B8ue170006ENS_18__default_init_tagE, symObjAddr: 0x7354, symBinAddr: 0x100007A20, symSize: 0x2C }
  - { offsetInCU: 0x168F9, offset: 0x168F9, size: 0x8, addend: 0x0, symName: __ZNSt3__19allocatorINS_4pairIiiEEEC2B8ue170006Ev, symObjAddr: 0x7380, symBinAddr: 0x100007A4C, symSize: 0x2C }
  - { offsetInCU: 0x16923, offset: 0x16923, size: 0x8, addend: 0x0, symName: __ZNSt3__116__non_trivial_ifILb1ENS_9allocatorINS_4pairIiiEEEEEC2B8ue170006Ev, symObjAddr: 0x73AC, symBinAddr: 0x100007A78, symSize: 0x14 }
  - { offsetInCU: 0x1696B, offset: 0x1696B, size: 0x8, addend: 0x0, symName: __ZNKSt3__113basic_ostreamIcNS_11char_traitsIcEEE6sentrycvbB8ue170006Ev, symObjAddr: 0x75AC, symBinAddr: 0x100007C78, symSize: 0x1C }
  - { offsetInCU: 0x16991, offset: 0x16991, size: 0x8, addend: 0x0, symName: __ZNSt3__119ostreambuf_iteratorIcNS_11char_traitsIcEEEC1B8ue170006ERNS_13basic_ostreamIcS2_EE, symObjAddr: 0x7808, symBinAddr: 0x100007ED4, symSize: 0x34 }
  - { offsetInCU: 0x169C9, offset: 0x169C9, size: 0x8, addend: 0x0, symName: __ZNKSt3__18ios_base5flagsB8ue170006Ev, symObjAddr: 0x783C, symBinAddr: 0x100007F08, symSize: 0x18 }
  - { offsetInCU: 0x169F1, offset: 0x169F1, size: 0x8, addend: 0x0, symName: __ZNKSt3__19basic_iosIcNS_11char_traitsIcEEE4fillB8ue170006Ev, symObjAddr: 0x7854, symBinAddr: 0x100007F20, symSize: 0x64 }
  - { offsetInCU: 0x16A19, offset: 0x16A19, size: 0x8, addend: 0x0, symName: __ZNKSt3__119ostreambuf_iteratorIcNS_11char_traitsIcEEE6failedB8ue170006Ev, symObjAddr: 0x78B8, symBinAddr: 0x100007F84, symSize: 0x24 }
  - { offsetInCU: 0x16A3F, offset: 0x16A3F, size: 0x8, addend: 0x0, symName: __ZNKSt3__18ios_base5widthB8ue170006Ev, symObjAddr: 0x78DC, symBinAddr: 0x100007FA8, symSize: 0x18 }
  - { offsetInCU: 0x16A67, offset: 0x16A67, size: 0x8, addend: 0x0, symName: __ZNSt3__115basic_streambufIcNS_11char_traitsIcEEE5sputnB8ue170006EPKcl, symObjAddr: 0x78F4, symBinAddr: 0x100007FC0, symSize: 0x3C }
  - { offsetInCU: 0x16AA9, offset: 0x16AA9, size: 0x8, addend: 0x0, symName: __ZNSt3__112basic_stringIcNS_11char_traitsIcEENS_9allocatorIcEEEC1B8ue170006Emc, symObjAddr: 0x7930, symBinAddr: 0x100007FFC, symSize: 0x3C }
  - { offsetInCU: 0x16AF1, offset: 0x16AF1, size: 0x8, addend: 0x0, symName: __ZNKSt3__112basic_stringIcNS_11char_traitsIcEENS_9allocatorIcEEE4dataB8ue170006Ev, symObjAddr: 0x796C, symBinAddr: 0x100008038, symSize: 0x28 }
  - { offsetInCU: 0x16B17, offset: 0x16B17, size: 0x8, addend: 0x0, symName: __ZNSt3__18ios_base5widthB8ue170006El, symObjAddr: 0x7994, symBinAddr: 0x100008060, symSize: 0x2C }
  - { offsetInCU: 0x16B5D, offset: 0x16B5D, size: 0x8, addend: 0x0, symName: __ZNSt3__112basic_stringIcNS_11char_traitsIcEENS_9allocatorIcEEEC2B8ue170006Emc, symObjAddr: 0x79C0, symBinAddr: 0x10000808C, symSize: 0x4C }
  - { offsetInCU: 0x16BA5, offset: 0x16BA5, size: 0x8, addend: 0x0, symName: __ZNKSt3__112basic_stringIcNS_11char_traitsIcEENS_9allocatorIcEEE13__get_pointerB8ue170006Ev, symObjAddr: 0x7A20, symBinAddr: 0x1000080EC, symSize: 0x54 }
  - { offsetInCU: 0x16BCB, offset: 0x16BCB, size: 0x8, addend: 0x0, symName: __ZNKSt3__112basic_stringIcNS_11char_traitsIcEENS_9allocatorIcEEE18__get_long_pointerB8ue170006Ev, symObjAddr: 0x7A74, symBinAddr: 0x100008140, symSize: 0x28 }
  - { offsetInCU: 0x16BF1, offset: 0x16BF1, size: 0x8, addend: 0x0, symName: __ZNKSt3__112basic_stringIcNS_11char_traitsIcEENS_9allocatorIcEEE19__get_short_pointerB8ue170006Ev, symObjAddr: 0x7A9C, symBinAddr: 0x100008168, symSize: 0x28 }
  - { offsetInCU: 0x16C17, offset: 0x16C17, size: 0x8, addend: 0x0, symName: __ZNSt3__114pointer_traitsIPKcE10pointer_toB8ue170006ERS1_, symObjAddr: 0x7AC4, symBinAddr: 0x100008190, symSize: 0x14 }
  - { offsetInCU: 0x16C3A, offset: 0x16C3A, size: 0x8, addend: 0x0, symName: __ZNSt3__119ostreambuf_iteratorIcNS_11char_traitsIcEEEC2B8ue170006ERNS_13basic_ostreamIcS2_EE, symObjAddr: 0x7AD8, symBinAddr: 0x1000081A4, symSize: 0x54 }
  - { offsetInCU: 0x16C72, offset: 0x16C72, size: 0x8, addend: 0x0, symName: __ZNSt3__15dequeINS_4pairIiiEENS_9allocatorIS2_EEE12emplace_backIJiiEEEvDpOT_, symObjAddr: 0x7B2C, symBinAddr: 0x1000081F8, symSize: 0xB4 }
  - { offsetInCU: 0x16CD7, offset: 0x16CD7, size: 0x8, addend: 0x0, symName: __ZNKSt3__15dequeINS_4pairIiiEENS_9allocatorIS2_EEE12__back_spareB8ue170006Ev, symObjAddr: 0x7BE0, symBinAddr: 0x1000082AC, symSize: 0x54 }
  - { offsetInCU: 0x16CFD, offset: 0x16CFD, size: 0x8, addend: 0x0, symName: __ZNSt3__15dequeINS_4pairIiiEENS_9allocatorIS2_EEE19__add_back_capacityEv, symObjAddr: 0x7C34, symBinAddr: 0x100008300, symSize: 0x34C }
  - { offsetInCU: 0x16DB5, offset: 0x16DB5, size: 0x8, addend: 0x0, symName: __ZNKSt3__15dequeINS_4pairIiiEENS_9allocatorIS2_EEE24__annotate_increase_backB8ue170006Em, symObjAddr: 0x7F80, symBinAddr: 0x10000864C, symSize: 0x7C }
  - { offsetInCU: 0x16DEA, offset: 0x16DEA, size: 0x8, addend: 0x0, symName: __ZNSt3__116allocator_traitsINS_9allocatorINS_4pairIiiEEEEE9constructB8ue170006IS3_JiiEvEEvRS4_PT_DpOT0_, symObjAddr: 0x7FFC, symBinAddr: 0x1000086C8, symSize: 0x3C }
  - { offsetInCU: 0x16E55, offset: 0x16E55, size: 0x8, addend: 0x0, symName: __ZNKSt3__15dequeINS_4pairIiiEENS_9allocatorIS2_EEE10__capacityB8ue170006Ev, symObjAddr: 0x8038, symBinAddr: 0x100008704, symSize: 0x60 }
  - { offsetInCU: 0x16E7B, offset: 0x16E7B, size: 0x8, addend: 0x0, symName: __ZNKSt3__15dequeINS_4pairIiiEENS_9allocatorIS2_EEE13__front_spareB8ue170006Ev, symObjAddr: 0x8098, symBinAddr: 0x100008764, symSize: 0x18 }
  - { offsetInCU: 0x16EA1, offset: 0x16EA1, size: 0x8, addend: 0x0, symName: __ZNSt3__114__split_bufferIPNS_4pairIiiEENS_9allocatorIS3_EEE9push_backB8ue170006ERKS3_, symObjAddr: 0x80B0, symBinAddr: 0x10000877C, symSize: 0x260 }
  - { offsetInCU: 0x16F1A, offset: 0x16F1A, size: 0x8, addend: 0x0, symName: __ZNKSt3__114__split_bufferIPNS_4pairIiiEENS_9allocatorIS3_EEE12__back_spareB8ue170006Ev, symObjAddr: 0x8310, symBinAddr: 0x1000089DC, symSize: 0x40 }
  - { offsetInCU: 0x16F40, offset: 0x16F40, size: 0x8, addend: 0x0, symName: __ZNSt3__114__split_bufferIPNS_4pairIiiEENS_9allocatorIS3_EEE9push_backEOS3_, symObjAddr: 0x8350, symBinAddr: 0x100008A1C, symSize: 0x260 }
  - { offsetInCU: 0x16FB9, offset: 0x16FB9, size: 0x8, addend: 0x0, symName: __ZNSt3__116allocator_traitsINS_9allocatorINS_4pairIiiEEEEE8allocateB8ue170006ERS4_m, symObjAddr: 0x85B0, symBinAddr: 0x100008C7C, symSize: 0x2C }
  - { offsetInCU: 0x16FEC, offset: 0x16FEC, size: 0x8, addend: 0x0, symName: __ZNSt3__114__split_bufferIPNS_4pairIiiEENS_9allocatorIS3_EEE10push_frontEOS3_, symObjAddr: 0x85DC, symBinAddr: 0x100008CA8, symSize: 0x25C }
  - { offsetInCU: 0x17065, offset: 0x17065, size: 0x8, addend: 0x0, symName: __ZNSt3__114__split_bufferIPNS_4pairIiiEERNS_9allocatorIS3_EEEC1EmmS6_, symObjAddr: 0x8838, symBinAddr: 0x100008F04, symSize: 0x44 }
  - { offsetInCU: 0x170C0, offset: 0x170C0, size: 0x8, addend: 0x0, symName: __ZNSt3__122__allocator_destructorINS_9allocatorINS_4pairIiiEEEEEC1B8ue170006ERS4_m, symObjAddr: 0x887C, symBinAddr: 0x100008F48, symSize: 0x3C }
  - { offsetInCU: 0x17183, offset: 0x17183, size: 0x8, addend: 0x0, symName: __ZNSt3__110unique_ptrIPNS_4pairIiiEENS_22__allocator_destructorINS_9allocatorIS2_EEEEEC1B8ue170006ILb1EvEES3_NS_16__dependent_typeINS_27__unique_ptr_deleter_sfinaeIS7_EEXT_EE20__good_rval_ref_typeE, symObjAddr: 0x88B8, symBinAddr: 0x100008F84, symSize: 0x3C }
  - { offsetInCU: 0x171D4, offset: 0x171D4, size: 0x8, addend: 0x0, symName: __ZNSt3__114__split_bufferIPNS_4pairIiiEERNS_9allocatorIS3_EEE9push_backEOS3_, symObjAddr: 0x88F4, symBinAddr: 0x100008FC0, symSize: 0x260 }
  - { offsetInCU: 0x1724D, offset: 0x1724D, size: 0x8, addend: 0x0, symName: __ZNKSt3__110unique_ptrIPNS_4pairIiiEENS_22__allocator_destructorINS_9allocatorIS2_EEEEE3getB8ue170006Ev, symObjAddr: 0x8B54, symBinAddr: 0x100009220, symSize: 0x28 }
  - { offsetInCU: 0x17273, offset: 0x17273, size: 0x8, addend: 0x0, symName: __ZNSt3__110unique_ptrIPNS_4pairIiiEENS_22__allocator_destructorINS_9allocatorIS2_EEEEE7releaseB8ue170006Ev, symObjAddr: 0x8B7C, symBinAddr: 0x100009248, symSize: 0x44 }
  - { offsetInCU: 0x172A8, offset: 0x172A8, size: 0x8, addend: 0x0, symName: __ZNSt3__114__split_bufferIPNS_4pairIiiEERNS_9allocatorIS3_EEE10push_frontERKS3_, symObjAddr: 0x8BC0, symBinAddr: 0x10000928C, symSize: 0x25C }
  - { offsetInCU: 0x17321, offset: 0x17321, size: 0x8, addend: 0x0, symName: __ZNSt3__114__split_bufferIPNS_4pairIiiEENS_9allocatorIS3_EEE9__end_capB8ue170006Ev, symObjAddr: 0x8E58, symBinAddr: 0x100009524, symSize: 0x28 }
  - { offsetInCU: 0x17347, offset: 0x17347, size: 0x8, addend: 0x0, symName: __ZNSt3__114__split_bufferIPNS_4pairIiiEERNS_9allocatorIS3_EEE9__end_capB8ue170006Ev, symObjAddr: 0x8E80, symBinAddr: 0x10000954C, symSize: 0x28 }
  - { offsetInCU: 0x1736D, offset: 0x1736D, size: 0x8, addend: 0x0, symName: __ZNSt3__110unique_ptrIPNS_4pairIiiEENS_22__allocator_destructorINS_9allocatorIS2_EEEEED1B8ue170006Ev, symObjAddr: 0x8EA8, symBinAddr: 0x100009574, symSize: 0x2C }
  - { offsetInCU: 0x17397, offset: 0x17397, size: 0x8, addend: 0x0, symName: __ZNSt3__114__split_bufferIPNS_4pairIiiEERNS_9allocatorIS3_EEED1Ev, symObjAddr: 0x8ED4, symBinAddr: 0x1000095A0, symSize: 0x2C }
  - { offsetInCU: 0x173C3, offset: 0x173C3, size: 0x8, addend: 0x0, symName: __ZNSt3__114__split_bufferIPNS_4pairIiiEERNS_9allocatorIS3_EEE18__construct_at_endINS_13move_iteratorIPS3_EEEENS_9enable_ifIXsr31__has_forward_iterator_categoryIT_EE5valueEvE4typeESD_SD_, symObjAddr: 0x8F40, symBinAddr: 0x10000960C, symSize: 0x60 }
  - { offsetInCU: 0x17410, offset: 0x17410, size: 0x8, addend: 0x0, symName: __ZNSt3__113move_iteratorIPPNS_4pairIiiEEEC1B8ue170006ES4_, symObjAddr: 0x8FA0, symBinAddr: 0x10000966C, symSize: 0x34 }
  - { offsetInCU: 0x17448, offset: 0x17448, size: 0x8, addend: 0x0, symName: __ZNSt3__116allocator_traitsINS_9allocatorIPNS_4pairIiiEEEEE9constructB8ue170006IS4_JRKS4_EvEEvRS5_PT_DpOT0_, symObjAddr: 0x8FD4, symBinAddr: 0x1000096A0, symSize: 0x34 }
  - { offsetInCU: 0x174C2, offset: 0x174C2, size: 0x8, addend: 0x0, symName: __ZNKSt3__114__move_trivialclB8ue170006IPNS_4pairIiiEES4_Li0EEENS2_IPT_PT0_EES6_S6_S8_, symObjAddr: 0x91A4, symBinAddr: 0x100009870, symSize: 0x48 }
  - { offsetInCU: 0x1752F, offset: 0x1752F, size: 0x8, addend: 0x0, symName: __ZNSt3__14pairIPPNS0_IiiEES3_EC1B8ue170006IRS3_S3_LPv0EEEOT_OT0_, symObjAddr: 0x93CC, symBinAddr: 0x100009A98, symSize: 0x3C }
  - { offsetInCU: 0x1758D, offset: 0x1758D, size: 0x8, addend: 0x0, symName: __ZNSt3__14pairIPPNS0_IiiEES3_EC2B8ue170006IRS3_S3_LPv0EEEOT_OT0_, symObjAddr: 0x9408, symBinAddr: 0x100009AD4, symSize: 0x34 }
  - { offsetInCU: 0x175EB, offset: 0x175EB, size: 0x8, addend: 0x0, symName: __ZNSt3__118__unwrap_iter_implIPPNS_4pairIiiEELb1EE8__unwrapB8ue170006ES4_, symObjAddr: 0x943C, symBinAddr: 0x100009B08, symSize: 0x24 }
  - { offsetInCU: 0x1760E, offset: 0x1760E, size: 0x8, addend: 0x0, symName: __ZNSt3__14pairIPPNS0_IiiEES3_EC1B8ue170006IS3_S3_LPv0EEEOT_OT0_, symObjAddr: 0x9460, symBinAddr: 0x100009B2C, symSize: 0x3C }
  - { offsetInCU: 0x1766C, offset: 0x1766C, size: 0x8, addend: 0x0, symName: __ZNSt3__14pairIPPNS0_IiiEES3_EC2B8ue170006IS3_S3_LPv0EEEOT_OT0_, symObjAddr: 0x949C, symBinAddr: 0x100009B68, symSize: 0x34 }
  - { offsetInCU: 0x176CA, offset: 0x176CA, size: 0x8, addend: 0x0, symName: __ZNSt3__118__unwrap_iter_implIPPNS_4pairIiiEELb1EE8__rewrapB8ue170006ES4_S4_, symObjAddr: 0x94D0, symBinAddr: 0x100009B9C, symSize: 0x50 }
  - { offsetInCU: 0x176FB, offset: 0x176FB, size: 0x8, addend: 0x0, symName: __ZNSt3__114__split_bufferIPNS_4pairIiiEERNS_9allocatorIS3_EEE28__construct_at_end_with_sizeINS_13move_iteratorIPS3_EEEEvT_m, symObjAddr: 0x9520, symBinAddr: 0x100009BEC, symSize: 0xDC }
  - { offsetInCU: 0x17761, offset: 0x17761, size: 0x8, addend: 0x0, symName: __ZNSt3__114__split_bufferIPNS_4pairIiiEERNS_9allocatorIS3_EEE21_ConstructTransactionC1B8ue170006EPPS3_m, symObjAddr: 0x9638, symBinAddr: 0x100009D04, symSize: 0x3C }
  - { offsetInCU: 0x177A7, offset: 0x177A7, size: 0x8, addend: 0x0, symName: __ZNSt3__116allocator_traitsINS_9allocatorIPNS_4pairIiiEEEEE9constructB8ue170006IS4_JS4_EvEEvRS5_PT_DpOT0_, symObjAddr: 0x9674, symBinAddr: 0x100009D40, symSize: 0x34 }
  - { offsetInCU: 0x177FE, offset: 0x177FE, size: 0x8, addend: 0x0, symName: __ZNSt3__114__split_bufferIPNS_4pairIiiEERNS_9allocatorIS3_EEE7__allocB8ue170006Ev, symObjAddr: 0x96A8, symBinAddr: 0x100009D74, symSize: 0x28 }
  - { offsetInCU: 0x17824, offset: 0x17824, size: 0x8, addend: 0x0, symName: __ZNKSt3__113move_iteratorIPPNS_4pairIiiEEEdeB8ue170006Ev, symObjAddr: 0x96D0, symBinAddr: 0x100009D9C, symSize: 0x18 }
  - { offsetInCU: 0x1784A, offset: 0x1784A, size: 0x8, addend: 0x0, symName: __ZNSt3__113move_iteratorIPPNS_4pairIiiEEEppB8ue170006Ev, symObjAddr: 0x96E8, symBinAddr: 0x100009DB4, symSize: 0x20 }
  - { offsetInCU: 0x17870, offset: 0x17870, size: 0x8, addend: 0x0, symName: __ZNSt3__114__split_bufferIPNS_4pairIiiEERNS_9allocatorIS3_EEE21_ConstructTransactionD1B8ue170006Ev, symObjAddr: 0x9708, symBinAddr: 0x100009DD4, symSize: 0x2C }
  - { offsetInCU: 0x1789A, offset: 0x1789A, size: 0x8, addend: 0x0, symName: __ZNSt3__114__split_bufferIPNS_4pairIiiEERNS_9allocatorIS3_EEE21_ConstructTransactionC2B8ue170006EPPS3_m, symObjAddr: 0x9734, symBinAddr: 0x100009E00, symSize: 0x44 }
  - { offsetInCU: 0x178E0, offset: 0x178E0, size: 0x8, addend: 0x0, symName: __ZNSt3__19allocatorIPNS_4pairIiiEEE9constructB8ue170006IS3_JS3_EEEvPT_DpOT0_, symObjAddr: 0x9778, symBinAddr: 0x100009E44, symSize: 0x28 }
  - { offsetInCU: 0x17936, offset: 0x17936, size: 0x8, addend: 0x0, symName: __ZNSt3__117__compressed_pairIPPNS_4pairIiiEERNS_9allocatorIS3_EEE6secondB8ue170006Ev, symObjAddr: 0x97A0, symBinAddr: 0x100009E6C, symSize: 0x28 }
  - { offsetInCU: 0x1795C, offset: 0x1795C, size: 0x8, addend: 0x0, symName: __ZNSt3__122__compressed_pair_elemIRNS_9allocatorIPNS_4pairIiiEEEELi1ELb0EE5__getB8ue170006Ev, symObjAddr: 0x97C8, symBinAddr: 0x100009E94, symSize: 0x18 }
  - { offsetInCU: 0x17982, offset: 0x17982, size: 0x8, addend: 0x0, symName: __ZNSt3__114__split_bufferIPNS_4pairIiiEERNS_9allocatorIS3_EEE21_ConstructTransactionD2B8ue170006Ev, symObjAddr: 0x97E0, symBinAddr: 0x100009EAC, symSize: 0x20 }
  - { offsetInCU: 0x179AC, offset: 0x179AC, size: 0x8, addend: 0x0, symName: __ZNKSt3__113move_iteratorIPPNS_4pairIiiEEE4baseB8ue170006Ev, symObjAddr: 0x9878, symBinAddr: 0x100009F44, symSize: 0x18 }
  - { offsetInCU: 0x179D2, offset: 0x179D2, size: 0x8, addend: 0x0, symName: __ZNSt3__113move_iteratorIPPNS_4pairIiiEEEC2B8ue170006ES4_, symObjAddr: 0x9890, symBinAddr: 0x100009F5C, symSize: 0x20 }
  - { offsetInCU: 0x17A0A, offset: 0x17A0A, size: 0x8, addend: 0x0, symName: __ZNSt3__19allocatorIPNS_4pairIiiEEE9constructB8ue170006IS3_JRKS3_EEEvPT_DpOT0_, symObjAddr: 0x98B0, symBinAddr: 0x100009F7C, symSize: 0x28 }
  - { offsetInCU: 0x17A60, offset: 0x17A60, size: 0x8, addend: 0x0, symName: __ZNSt3__19allocatorINS_4pairIiiEEE8allocateB8ue170006Em, symObjAddr: 0x98D8, symBinAddr: 0x100009FA4, symSize: 0x58 }
  - { offsetInCU: 0x17A9E, offset: 0x17A9E, size: 0x8, addend: 0x0, symName: __ZNSt3__116allocator_traitsINS_9allocatorINS_4pairIiiEEEEE8max_sizeB8ue170006IS4_vEEmRKS4_, symObjAddr: 0x9930, symBinAddr: 0x100009FFC, symSize: 0x24 }
  - { offsetInCU: 0x17ACC, offset: 0x17ACC, size: 0x8, addend: 0x0, symName: __ZNKSt3__19allocatorINS_4pairIiiEEE8max_sizeB8ue170006Ev, symObjAddr: 0x9954, symBinAddr: 0x10000A020, symSize: 0x14 }
  - { offsetInCU: 0x17AFC, offset: 0x17AFC, size: 0x8, addend: 0x0, symName: __ZNKSt3__123__move_backward_trivialclB8ue170006IPNS_4pairIiiEES4_Li0EEENS2_IPT_PT0_EES6_S6_S8_, symObjAddr: 0x9AE4, symBinAddr: 0x10000A1B0, symSize: 0x48 }
  - { offsetInCU: 0x17B64, offset: 0x17B64, size: 0x8, addend: 0x0, symName: __ZNSt3__14pairIPPNS0_IiiEES3_EC1B8ue170006IRS3_S6_LPv0EEEOT_OT0_, symObjAddr: 0x9BF4, symBinAddr: 0x10000A2C0, symSize: 0x3C }
  - { offsetInCU: 0x17BC2, offset: 0x17BC2, size: 0x8, addend: 0x0, symName: __ZNSt3__14pairIPPNS0_IiiEES3_EC2B8ue170006IRS3_S6_LPv0EEEOT_OT0_, symObjAddr: 0x9C30, symBinAddr: 0x10000A2FC, symSize: 0x34 }
  - { offsetInCU: 0x17C20, offset: 0x17C20, size: 0x8, addend: 0x0, symName: __ZNSt3__114__split_bufferIPNS_4pairIiiEERNS_9allocatorIS3_EEEC2EmmS6_, symObjAddr: 0x9C64, symBinAddr: 0x10000A330, symSize: 0xD4 }
  - { offsetInCU: 0x17C94, offset: 0x17C94, size: 0x8, addend: 0x0, symName: __ZNSt3__117__compressed_pairIPPNS_4pairIiiEERNS_9allocatorIS3_EEEC1B8ue170006IDnS7_EEOT_OT0_, symObjAddr: 0x9D38, symBinAddr: 0x10000A404, symSize: 0x3C }
  - { offsetInCU: 0x17CEC, offset: 0x17CEC, size: 0x8, addend: 0x0, symName: __ZNSt3__117__compressed_pairIPPNS_4pairIiiEERNS_9allocatorIS3_EEEC2B8ue170006IDnS7_EEOT_OT0_, symObjAddr: 0x9DB4, symBinAddr: 0x10000A480, symSize: 0x48 }
  - { offsetInCU: 0x17D44, offset: 0x17D44, size: 0x8, addend: 0x0, symName: __ZNSt3__122__compressed_pair_elemIRNS_9allocatorIPNS_4pairIiiEEEELi1ELb0EEC2B8ue170006IS6_vEEOT_, symObjAddr: 0x9DFC, symBinAddr: 0x10000A4C8, symSize: 0x20 }
  - { offsetInCU: 0x17D86, offset: 0x17D86, size: 0x8, addend: 0x0, symName: __ZNSt3__19allocatorIPNS_4pairIiiEEE8allocateB8ue170006Em, symObjAddr: 0x9E1C, symBinAddr: 0x10000A4E8, symSize: 0x58 }
  - { offsetInCU: 0x17DC4, offset: 0x17DC4, size: 0x8, addend: 0x0, symName: __ZNSt3__116allocator_traitsINS_9allocatorIPNS_4pairIiiEEEEE8max_sizeB8ue170006IS5_vEEmRKS5_, symObjAddr: 0x9E74, symBinAddr: 0x10000A540, symSize: 0x24 }
  - { offsetInCU: 0x17DF2, offset: 0x17DF2, size: 0x8, addend: 0x0, symName: __ZNKSt3__19allocatorIPNS_4pairIiiEEE8max_sizeB8ue170006Ev, symObjAddr: 0x9E98, symBinAddr: 0x10000A564, symSize: 0x14 }
  - { offsetInCU: 0x17E18, offset: 0x17E18, size: 0x8, addend: 0x0, symName: __ZNSt3__122__allocator_destructorINS_9allocatorINS_4pairIiiEEEEEC2B8ue170006ERS4_m, symObjAddr: 0x9EAC, symBinAddr: 0x10000A578, symSize: 0x2C }
  - { offsetInCU: 0x17E5E, offset: 0x17E5E, size: 0x8, addend: 0x0, symName: __ZNSt3__110unique_ptrIPNS_4pairIiiEENS_22__allocator_destructorINS_9allocatorIS2_EEEEEC2B8ue170006ILb1EvEES3_NS_16__dependent_typeINS_27__unique_ptr_deleter_sfinaeIS7_EEXT_EE20__good_rval_ref_typeE, symObjAddr: 0x9ED8, symBinAddr: 0x10000A5A4, symSize: 0x48 }
  - { offsetInCU: 0x17EAF, offset: 0x17EAF, size: 0x8, addend: 0x0, symName: __ZNSt3__117__compressed_pairIPNS_4pairIiiEENS_22__allocator_destructorINS_9allocatorIS2_EEEEEC1B8ue170006IRS3_S7_EEOT_OT0_, symObjAddr: 0x9F20, symBinAddr: 0x10000A5EC, symSize: 0x3C }
  - { offsetInCU: 0x17F07, offset: 0x17F07, size: 0x8, addend: 0x0, symName: __ZNSt3__117__compressed_pairIPNS_4pairIiiEENS_22__allocator_destructorINS_9allocatorIS2_EEEEEC2B8ue170006IRS3_S7_EEOT_OT0_, symObjAddr: 0x9F5C, symBinAddr: 0x10000A628, symSize: 0x48 }
  - { offsetInCU: 0x17F5F, offset: 0x17F5F, size: 0x8, addend: 0x0, symName: __ZNSt3__122__compressed_pair_elemIPNS_4pairIiiEELi0ELb0EEC2B8ue170006IRS3_vEEOT_, symObjAddr: 0x9FA4, symBinAddr: 0x10000A670, symSize: 0x24 }
  - { offsetInCU: 0x17FA1, offset: 0x17FA1, size: 0x8, addend: 0x0, symName: __ZNSt3__122__compressed_pair_elemINS_22__allocator_destructorINS_9allocatorINS_4pairIiiEEEEEELi1ELb0EEC2B8ue170006IS6_vEEOT_, symObjAddr: 0x9FC8, symBinAddr: 0x10000A694, symSize: 0x24 }
  - { offsetInCU: 0x17FE3, offset: 0x17FE3, size: 0x8, addend: 0x0, symName: __ZNKSt3__117__compressed_pairIPNS_4pairIiiEENS_22__allocator_destructorINS_9allocatorIS2_EEEEE5firstB8ue170006Ev, symObjAddr: 0x9FEC, symBinAddr: 0x10000A6B8, symSize: 0x24 }
  - { offsetInCU: 0x18009, offset: 0x18009, size: 0x8, addend: 0x0, symName: __ZNKSt3__122__compressed_pair_elemIPNS_4pairIiiEELi0ELb0EE5__getB8ue170006Ev, symObjAddr: 0xA010, symBinAddr: 0x10000A6DC, symSize: 0x14 }
  - { offsetInCU: 0x1802F, offset: 0x1802F, size: 0x8, addend: 0x0, symName: __ZNSt3__117__compressed_pairIPNS_4pairIiiEENS_22__allocator_destructorINS_9allocatorIS2_EEEEE5firstB8ue170006Ev, symObjAddr: 0xA024, symBinAddr: 0x10000A6F0, symSize: 0x24 }
  - { offsetInCU: 0x18055, offset: 0x18055, size: 0x8, addend: 0x0, symName: __ZNSt3__122__compressed_pair_elemIPNS_4pairIiiEELi0ELb0EE5__getB8ue170006Ev, symObjAddr: 0xA048, symBinAddr: 0x10000A714, symSize: 0x14 }
  - { offsetInCU: 0x1807B, offset: 0x1807B, size: 0x8, addend: 0x0, symName: __ZNSt3__117__compressed_pairIPPNS_4pairIiiEENS_9allocatorIS3_EEE5firstB8ue170006Ev, symObjAddr: 0xA05C, symBinAddr: 0x10000A728, symSize: 0x24 }
  - { offsetInCU: 0x180A1, offset: 0x180A1, size: 0x8, addend: 0x0, symName: __ZNSt3__122__compressed_pair_elemIPPNS_4pairIiiEELi0ELb0EE5__getB8ue170006Ev, symObjAddr: 0xA080, symBinAddr: 0x10000A74C, symSize: 0x14 }
  - { offsetInCU: 0x180C7, offset: 0x180C7, size: 0x8, addend: 0x0, symName: __ZNSt3__117__compressed_pairIPPNS_4pairIiiEERNS_9allocatorIS3_EEE5firstB8ue170006Ev, symObjAddr: 0xA094, symBinAddr: 0x10000A760, symSize: 0x24 }
  - { offsetInCU: 0x180ED, offset: 0x180ED, size: 0x8, addend: 0x0, symName: __ZNSt3__110unique_ptrIPNS_4pairIiiEENS_22__allocator_destructorINS_9allocatorIS2_EEEEED2B8ue170006Ev, symObjAddr: 0xA0B8, symBinAddr: 0x10000A784, symSize: 0x30 }
  - { offsetInCU: 0x18117, offset: 0x18117, size: 0x8, addend: 0x0, symName: __ZNSt3__110unique_ptrIPNS_4pairIiiEENS_22__allocator_destructorINS_9allocatorIS2_EEEEE5resetB8ue170006ES3_, symObjAddr: 0xA0E8, symBinAddr: 0x10000A7B4, symSize: 0x78 }
  - { offsetInCU: 0x1815B, offset: 0x1815B, size: 0x8, addend: 0x0, symName: __ZNSt3__117__compressed_pairIPNS_4pairIiiEENS_22__allocator_destructorINS_9allocatorIS2_EEEEE6secondB8ue170006Ev, symObjAddr: 0xA160, symBinAddr: 0x10000A82C, symSize: 0x28 }
  - { offsetInCU: 0x18181, offset: 0x18181, size: 0x8, addend: 0x0, symName: __ZNSt3__122__allocator_destructorINS_9allocatorINS_4pairIiiEEEEEclB8ue170006EPS3_, symObjAddr: 0xA188, symBinAddr: 0x10000A854, symSize: 0x34 }
  - { offsetInCU: 0x181B5, offset: 0x181B5, size: 0x8, addend: 0x0, symName: __ZNSt3__122__compressed_pair_elemINS_22__allocator_destructorINS_9allocatorINS_4pairIiiEEEEEELi1ELb0EE5__getB8ue170006Ev, symObjAddr: 0xA1BC, symBinAddr: 0x10000A888, symSize: 0x14 }
  - { offsetInCU: 0x181DB, offset: 0x181DB, size: 0x8, addend: 0x0, symName: __ZNSt3__114__split_bufferIPNS_4pairIiiEERNS_9allocatorIS3_EEED2Ev, symObjAddr: 0xA1D0, symBinAddr: 0x10000A89C, symSize: 0x8C }
  - { offsetInCU: 0x18207, offset: 0x18207, size: 0x8, addend: 0x0, symName: __ZNSt3__114__split_bufferIPNS_4pairIiiEERNS_9allocatorIS3_EEE5clearB8ue170006Ev, symObjAddr: 0xA25C, symBinAddr: 0x10000A928, symSize: 0x28 }
  - { offsetInCU: 0x1822D, offset: 0x1822D, size: 0x8, addend: 0x0, symName: __ZNKSt3__114__split_bufferIPNS_4pairIiiEERNS_9allocatorIS3_EEE8capacityB8ue170006Ev, symObjAddr: 0xA284, symBinAddr: 0x10000A950, symSize: 0x40 }
  - { offsetInCU: 0x18253, offset: 0x18253, size: 0x8, addend: 0x0, symName: __ZNSt3__114__split_bufferIPNS_4pairIiiEERNS_9allocatorIS3_EEE17__destruct_at_endB8ue170006EPS3_, symObjAddr: 0xA2C4, symBinAddr: 0x10000A990, symSize: 0x2C }
  - { offsetInCU: 0x18287, offset: 0x18287, size: 0x8, addend: 0x0, symName: __ZNSt3__114__split_bufferIPNS_4pairIiiEERNS_9allocatorIS3_EEE17__destruct_at_endB8ue170006EPS3_NS_17integral_constantIbLb0EEE, symObjAddr: 0xA2F0, symBinAddr: 0x10000A9BC, symSize: 0x80 }
  - { offsetInCU: 0x182C7, offset: 0x182C7, size: 0x8, addend: 0x0, symName: __ZNKSt3__114__split_bufferIPNS_4pairIiiEERNS_9allocatorIS3_EEE9__end_capB8ue170006Ev, symObjAddr: 0xA370, symBinAddr: 0x10000AA3C, symSize: 0x28 }
  - { offsetInCU: 0x182ED, offset: 0x182ED, size: 0x8, addend: 0x0, symName: __ZNKSt3__117__compressed_pairIPPNS_4pairIiiEERNS_9allocatorIS3_EEE5firstB8ue170006Ev, symObjAddr: 0xA398, symBinAddr: 0x10000AA64, symSize: 0x24 }
  - { offsetInCU: 0x18313, offset: 0x18313, size: 0x8, addend: 0x0, symName: __ZNSt3__19allocatorINS_4pairIiiEEE9constructB8ue170006IS2_JiiEEEvPT_DpOT0_, symObjAddr: 0xA3BC, symBinAddr: 0x10000AA88, symSize: 0x38 }
  - { offsetInCU: 0x1837C, offset: 0x1837C, size: 0x8, addend: 0x0, symName: __ZNSt3__14pairIiiEC1B8ue170006IiiLPv0EEEOT_OT0_, symObjAddr: 0xA3F4, symBinAddr: 0x10000AAC0, symSize: 0x3C }
  - { offsetInCU: 0x183DA, offset: 0x183DA, size: 0x8, addend: 0x0, symName: __ZNSt3__14pairIiiEC2B8ue170006IiiLPv0EEEOT_OT0_, symObjAddr: 0xA430, symBinAddr: 0x10000AAFC, symSize: 0x34 }
  - { offsetInCU: 0x18438, offset: 0x18438, size: 0x8, addend: 0x0, symName: __ZNSt3__15dequeINS_4pairIiiEENS_9allocatorIS2_EEE5frontEv, symObjAddr: 0xA464, symBinAddr: 0x10000AB30, symSize: 0x50 }
  - { offsetInCU: 0x18460, offset: 0x18460, size: 0x8, addend: 0x0, symName: __ZNSt3__15dequeINS_4pairIiiEENS_9allocatorIS2_EEE9pop_frontEv, symObjAddr: 0xA4B4, symBinAddr: 0x10000AB80, symSize: 0xD4 }
  - { offsetInCU: 0x184B5, offset: 0x184B5, size: 0x8, addend: 0x0, symName: __ZNKSt3__15dequeINS_4pairIiiEENS_9allocatorIS2_EEE23__annotate_shrink_frontB8ue170006Emm, symObjAddr: 0xA588, symBinAddr: 0x10000AC54, symSize: 0x70 }
  - { offsetInCU: 0x184F9, offset: 0x184F9, size: 0x8, addend: 0x0, symName: __ZNSt3__15dequeINS_4pairIiiEENS_9allocatorIS2_EEE26__maybe_remove_front_spareB8ue170006Eb, symObjAddr: 0xA5F8, symBinAddr: 0x10000ACC4, symSize: 0xEC }
  - { offsetInCU: 0x1852E, offset: 0x1852E, size: 0x8, addend: 0x0, symName: __ZNKSt3__15dequeINS_4pairIiiEENS_9allocatorIS2_EEE20__front_spare_blocksB8ue170006Ev, symObjAddr: 0xA6E4, symBinAddr: 0x10000ADB0, symSize: 0x2C }
  - { offsetInCU: 0x18554, offset: 0x18554, size: 0x8, addend: 0x0, symName: __ZNSt3__15dequeINS_4pairIiiEENS_9allocatorIS2_EEE12emplace_backIJRiS7_EEEvDpOT_, symObjAddr: 0xA710, symBinAddr: 0x10000ADDC, symSize: 0xB4 }
  - { offsetInCU: 0x185B9, offset: 0x185B9, size: 0x8, addend: 0x0, symName: __ZNSt3__116allocator_traitsINS_9allocatorINS_4pairIiiEEEEE9constructB8ue170006IS3_JRiS7_EvEEvRS4_PT_DpOT0_, symObjAddr: 0xA7C4, symBinAddr: 0x10000AE90, symSize: 0x3C }
  - { offsetInCU: 0x18624, offset: 0x18624, size: 0x8, addend: 0x0, symName: __ZNSt3__19allocatorINS_4pairIiiEEE9constructB8ue170006IS2_JRiS5_EEEvPT_DpOT0_, symObjAddr: 0xA800, symBinAddr: 0x10000AECC, symSize: 0x38 }
  - { offsetInCU: 0x1868D, offset: 0x1868D, size: 0x8, addend: 0x0, symName: __ZNSt3__14pairIiiEC1B8ue170006IRiS3_LPv0EEEOT_OT0_, symObjAddr: 0xA838, symBinAddr: 0x10000AF04, symSize: 0x3C }
  - { offsetInCU: 0x186EB, offset: 0x186EB, size: 0x8, addend: 0x0, symName: __ZNSt3__14pairIiiEC2B8ue170006IRiS3_LPv0EEEOT_OT0_, symObjAddr: 0xA874, symBinAddr: 0x10000AF40, symSize: 0x34 }
...
