---
triple:          'arm64-apple-darwin'
binary-path:     MazeGenerate
relocations:
  - { offsetInCU: 0x2FBD, offset: 0x2FBD, size: 0x8, addend: 0x0, symName: __ZNSt3__124__put_character_sequenceB8ue170006IcNS_11char_traitsIcEEEERNS_13basic_ostreamIT_T0_EES7_PKS4_m, symObjAddr: 0x280, symBinAddr: 0x100001FF0, symSize: 0x1EC }
  - { offsetInCU: 0x4943, offset: 0x4943, size: 0x8, addend: 0x0, symName: __ZNSt3__1lsB8ue170006INS_11char_traitsIcEEEERNS_13basic_ostreamIcT_EES6_PKc, symObjAddr: 0x10C, symBinAddr: 0x100001E7C, symSize: 0x48 }
  - { offsetInCU: 0x4989, offset: 0x4989, size: 0x8, addend: 0x0, symName: __ZNSt3__1lsB8ue170006INS_11char_traitsIcEEEERNS_13basic_ostreamIcT_EES6_RKNS_8__iom_t4IcEE, symObjAddr: 0x154, symBinAddr: 0x100001EC4, symSize: 0x40 }
  - { offsetInCU: 0x49CC, offset: 0x49CC, size: 0x8, addend: 0x0, symName: __ZNSt3__1lsB8ue170006IcNS_11char_traitsIcEEEERNS_13basic_ostreamIT_T0_EES7_RKNS_8__iom_t6E, symObjAddr: 0x194, symBinAddr: 0x100001F04, symSize: 0x40 }
  - { offsetInCU: 0x4A1B, offset: 0x4A1B, size: 0x8, addend: 0x0, symName: __ZNSt3__14setwB8ue170006Ei, symObjAddr: 0x1D4, symBinAddr: 0x100001F44, symSize: 0x2C }
  - { offsetInCU: 0x4A49, offset: 0x4A49, size: 0x8, addend: 0x0, symName: __ZNSt3__17setfillB8ue170006IcEENS_8__iom_t4IT_EES2_, symObjAddr: 0x200, symBinAddr: 0x100001F70, symSize: 0x2C }
  - { offsetInCU: 0x4A7E, offset: 0x4A7E, size: 0x8, addend: 0x0, symName: __ZNSt3__116__pad_and_outputB8ue170006IcNS_11char_traitsIcEEEENS_19ostreambuf_iteratorIT_T0_EES6_PKS4_S8_S8_RNS_8ios_baseES4_, symObjAddr: 0x4BC, symBinAddr: 0x10000222C, symSize: 0x240 }
  - { offsetInCU: 0x4B4D, offset: 0x4B4D, size: 0x8, addend: 0x0, symName: __ZNSt3__112__to_addressB8ue170006IKcEEPT_S3_, symObjAddr: 0xA30, symBinAddr: 0x1000027A0, symSize: 0x14 }
  - { offsetInCU: 0x4BB5, offset: 0x4BB5, size: 0x8, addend: 0x0, symName: __ZNSt3__19use_facetB8ue170006INS_5ctypeIcEEEERKT_RKNS_6localeE, symObjAddr: 0xCB0, symBinAddr: 0x100002A20, symSize: 0x2C }
  - { offsetInCU: 0x5082, offset: 0x5082, size: 0x8, addend: 0x0, symName: __ZNSt3__118__constexpr_strlenB8ue170006EPKc, symObjAddr: 0xD48, symBinAddr: 0x100002AB8, symSize: 0x24 }
  - { offsetInCU: 0x7804, offset: 0x7804, size: 0x8, addend: 0x0, symName: __ZN4Node6OutputEv, symObjAddr: 0x0, symBinAddr: 0x100001D70, symSize: 0x10C }
  - { offsetInCU: 0x782A, offset: 0x782A, size: 0x8, addend: 0x0, symName: __ZNSt3__18__iom_t6C1B8ue170006Ei, symObjAddr: 0x22C, symBinAddr: 0x100001F9C, symSize: 0x34 }
  - { offsetInCU: 0x7860, offset: 0x7860, size: 0x8, addend: 0x0, symName: __ZNSt3__18__iom_t6C2B8ue170006Ei, symObjAddr: 0x260, symBinAddr: 0x100001FD0, symSize: 0x20 }
  - { offsetInCU: 0x7896, offset: 0x7896, size: 0x8, addend: 0x0, symName: __ZNSt3__111char_traitsIcE6lengthB8ue170006EPKc, symObjAddr: 0x46C, symBinAddr: 0x1000021DC, symSize: 0x34 }
  - { offsetInCU: 0x78D6, offset: 0x78D6, size: 0x8, addend: 0x0, symName: __ZNKSt3__113basic_ostreamIcNS_11char_traitsIcEEE6sentrycvbB8ue170006Ev, symObjAddr: 0x4A0, symBinAddr: 0x100002210, symSize: 0x1C }
  - { offsetInCU: 0x78FA, offset: 0x78FA, size: 0x8, addend: 0x0, symName: __ZNSt3__119ostreambuf_iteratorIcNS_11char_traitsIcEEEC1B8ue170006ERNS_13basic_ostreamIcS2_EE, symObjAddr: 0x6FC, symBinAddr: 0x10000246C, symSize: 0x34 }
  - { offsetInCU: 0x7930, offset: 0x7930, size: 0x8, addend: 0x0, symName: __ZNKSt3__18ios_base5flagsB8ue170006Ev, symObjAddr: 0x730, symBinAddr: 0x1000024A0, symSize: 0x18 }
  - { offsetInCU: 0x7956, offset: 0x7956, size: 0x8, addend: 0x0, symName: __ZNKSt3__19basic_iosIcNS_11char_traitsIcEEE4fillB8ue170006Ev, symObjAddr: 0x748, symBinAddr: 0x1000024B8, symSize: 0x64 }
  - { offsetInCU: 0x797C, offset: 0x797C, size: 0x8, addend: 0x0, symName: __ZNKSt3__119ostreambuf_iteratorIcNS_11char_traitsIcEEE6failedB8ue170006Ev, symObjAddr: 0x7AC, symBinAddr: 0x10000251C, symSize: 0x24 }
  - { offsetInCU: 0x79A0, offset: 0x79A0, size: 0x8, addend: 0x0, symName: __ZNSt3__19basic_iosIcNS_11char_traitsIcEEE8setstateB8ue170006Ej, symObjAddr: 0x7D0, symBinAddr: 0x100002540, symSize: 0x2C }
  - { offsetInCU: 0x79D3, offset: 0x79D3, size: 0x8, addend: 0x0, symName: __ZNKSt3__18ios_base5widthB8ue170006Ev, symObjAddr: 0x808, symBinAddr: 0x100002578, symSize: 0x18 }
  - { offsetInCU: 0x79F9, offset: 0x79F9, size: 0x8, addend: 0x0, symName: __ZNSt3__115basic_streambufIcNS_11char_traitsIcEEE5sputnB8ue170006EPKcl, symObjAddr: 0x820, symBinAddr: 0x100002590, symSize: 0x3C }
  - { offsetInCU: 0x7A39, offset: 0x7A39, size: 0x8, addend: 0x0, symName: __ZNSt3__112basic_stringIcNS_11char_traitsIcEENS_9allocatorIcEEEC1B8ue170006Emc, symObjAddr: 0x85C, symBinAddr: 0x1000025CC, symSize: 0x3C }
  - { offsetInCU: 0x7A7F, offset: 0x7A7F, size: 0x8, addend: 0x0, symName: __ZNKSt3__112basic_stringIcNS_11char_traitsIcEENS_9allocatorIcEEE4dataB8ue170006Ev, symObjAddr: 0x898, symBinAddr: 0x100002608, symSize: 0x28 }
  - { offsetInCU: 0x7AA3, offset: 0x7AA3, size: 0x8, addend: 0x0, symName: __ZNSt3__18ios_base5widthB8ue170006El, symObjAddr: 0x8C0, symBinAddr: 0x100002630, symSize: 0x2C }
  - { offsetInCU: 0x7AE7, offset: 0x7AE7, size: 0x8, addend: 0x0, symName: __ZNSt3__112basic_stringIcNS_11char_traitsIcEENS_9allocatorIcEEEC2B8ue170006Emc, symObjAddr: 0x8EC, symBinAddr: 0x10000265C, symSize: 0x4C }
  - { offsetInCU: 0x7B32, offset: 0x7B32, size: 0x8, addend: 0x0, symName: __ZNSt3__117__compressed_pairINS_12basic_stringIcNS_11char_traitsIcEENS_9allocatorIcEEE5__repES5_EC1B8ue170006INS_18__default_init_tagESA_EEOT_OT0_, symObjAddr: 0x938, symBinAddr: 0x1000026A8, symSize: 0x3C }
  - { offsetInCU: 0x7B88, offset: 0x7B88, size: 0x8, addend: 0x0, symName: __ZNSt3__117__compressed_pairINS_12basic_stringIcNS_11char_traitsIcEENS_9allocatorIcEEE5__repES5_EC2B8ue170006INS_18__default_init_tagESA_EEOT_OT0_, symObjAddr: 0x974, symBinAddr: 0x1000026E4, symSize: 0x3C }
  - { offsetInCU: 0x7BDE, offset: 0x7BDE, size: 0x8, addend: 0x0, symName: __ZNSt3__122__compressed_pair_elemINS_12basic_stringIcNS_11char_traitsIcEENS_9allocatorIcEEE5__repELi0ELb0EEC2B8ue170006ENS_18__default_init_tagE, symObjAddr: 0x9B0, symBinAddr: 0x100002720, symSize: 0x14 }
  - { offsetInCU: 0x7C10, offset: 0x7C10, size: 0x8, addend: 0x0, symName: __ZNSt3__122__compressed_pair_elemINS_9allocatorIcEELi1ELb1EEC2B8ue170006ENS_18__default_init_tagE, symObjAddr: 0x9C4, symBinAddr: 0x100002734, symSize: 0x2C }
  - { offsetInCU: 0x7C42, offset: 0x7C42, size: 0x8, addend: 0x0, symName: __ZNSt3__19allocatorIcEC2B8ue170006Ev, symObjAddr: 0x9F0, symBinAddr: 0x100002760, symSize: 0x2C }
  - { offsetInCU: 0x7C6A, offset: 0x7C6A, size: 0x8, addend: 0x0, symName: __ZNSt3__116__non_trivial_ifILb1ENS_9allocatorIcEEEC2B8ue170006Ev, symObjAddr: 0xA1C, symBinAddr: 0x10000278C, symSize: 0x14 }
  - { offsetInCU: 0x7C92, offset: 0x7C92, size: 0x8, addend: 0x0, symName: __ZNKSt3__112basic_stringIcNS_11char_traitsIcEENS_9allocatorIcEEE13__get_pointerB8ue170006Ev, symObjAddr: 0xA44, symBinAddr: 0x1000027B4, symSize: 0x54 }
  - { offsetInCU: 0x7CB6, offset: 0x7CB6, size: 0x8, addend: 0x0, symName: __ZNKSt3__112basic_stringIcNS_11char_traitsIcEENS_9allocatorIcEEE9__is_longB8ue170006Ev, symObjAddr: 0xA98, symBinAddr: 0x100002808, symSize: 0x38 }
  - { offsetInCU: 0x7CDA, offset: 0x7CDA, size: 0x8, addend: 0x0, symName: __ZNKSt3__112basic_stringIcNS_11char_traitsIcEENS_9allocatorIcEEE18__get_long_pointerB8ue170006Ev, symObjAddr: 0xAD0, symBinAddr: 0x100002840, symSize: 0x28 }
  - { offsetInCU: 0x7CFE, offset: 0x7CFE, size: 0x8, addend: 0x0, symName: __ZNKSt3__112basic_stringIcNS_11char_traitsIcEENS_9allocatorIcEEE19__get_short_pointerB8ue170006Ev, symObjAddr: 0xAF8, symBinAddr: 0x100002868, symSize: 0x28 }
  - { offsetInCU: 0x7D22, offset: 0x7D22, size: 0x8, addend: 0x0, symName: __ZNKSt3__117__compressed_pairINS_12basic_stringIcNS_11char_traitsIcEENS_9allocatorIcEEE5__repES5_E5firstB8ue170006Ev, symObjAddr: 0xB20, symBinAddr: 0x100002890, symSize: 0x24 }
  - { offsetInCU: 0x7D46, offset: 0x7D46, size: 0x8, addend: 0x0, symName: __ZNKSt3__122__compressed_pair_elemINS_12basic_stringIcNS_11char_traitsIcEENS_9allocatorIcEEE5__repELi0ELb0EE5__getB8ue170006Ev, symObjAddr: 0xB44, symBinAddr: 0x1000028B4, symSize: 0x14 }
  - { offsetInCU: 0x7D6A, offset: 0x7D6A, size: 0x8, addend: 0x0, symName: __ZNSt3__114pointer_traitsIPKcE10pointer_toB8ue170006ERS1_, symObjAddr: 0xB58, symBinAddr: 0x1000028C8, symSize: 0x14 }
  - { offsetInCU: 0x7D8C, offset: 0x7D8C, size: 0x8, addend: 0x0, symName: __ZNSt3__119ostreambuf_iteratorIcNS_11char_traitsIcEEEC2B8ue170006ERNS_13basic_ostreamIcS2_EE, symObjAddr: 0xB6C, symBinAddr: 0x1000028DC, symSize: 0x54 }
  - { offsetInCU: 0x7DC2, offset: 0x7DC2, size: 0x8, addend: 0x0, symName: __ZNKSt3__19basic_iosIcNS_11char_traitsIcEEE5rdbufB8ue170006Ev, symObjAddr: 0xBC0, symBinAddr: 0x100002930, symSize: 0x24 }
  - { offsetInCU: 0x7DE8, offset: 0x7DE8, size: 0x8, addend: 0x0, symName: __ZNKSt3__18ios_base5rdbufB8ue170006Ev, symObjAddr: 0xBE4, symBinAddr: 0x100002954, symSize: 0x18 }
  - { offsetInCU: 0x7E0C, offset: 0x7E0C, size: 0x8, addend: 0x0, symName: __ZNSt3__111char_traitsIcE11eq_int_typeB8ue170006Eii, symObjAddr: 0xBFC, symBinAddr: 0x10000296C, symSize: 0x28 }
  - { offsetInCU: 0x7E3E, offset: 0x7E3E, size: 0x8, addend: 0x0, symName: __ZNSt3__111char_traitsIcE3eofB8ue170006Ev, symObjAddr: 0xC24, symBinAddr: 0x100002994, symSize: 0x8 }
  - { offsetInCU: 0x7E51, offset: 0x7E51, size: 0x8, addend: 0x0, symName: __ZNKSt3__19basic_iosIcNS_11char_traitsIcEEE5widenB8ue170006Ec, symObjAddr: 0xC2C, symBinAddr: 0x10000299C, symSize: 0x84 }
  - { offsetInCU: 0x7EBD, offset: 0x7EBD, size: 0x8, addend: 0x0, symName: __ZNKSt3__15ctypeIcE5widenB8ue170006Ec, symObjAddr: 0xCDC, symBinAddr: 0x100002A4C, symSize: 0x38 }
  - { offsetInCU: 0x7EF0, offset: 0x7EF0, size: 0x8, addend: 0x0, symName: __ZNSt3__18ios_base8setstateB8ue170006Ej, symObjAddr: 0xD14, symBinAddr: 0x100002A84, symSize: 0x34 }
  - { offsetInCU: 0x7F25, offset: 0x7F25, size: 0x8, addend: 0x0, symName: __ZNSt3__18__iom_t4IcEC1B8ue170006Ec, symObjAddr: 0xD6C, symBinAddr: 0x100002ADC, symSize: 0x34 }
  - { offsetInCU: 0x7F5B, offset: 0x7F5B, size: 0x8, addend: 0x0, symName: __ZNSt3__18__iom_t4IcEC2B8ue170006Ec, symObjAddr: 0xDA0, symBinAddr: 0x100002B10, symSize: 0x20 }
  - { offsetInCU: 0x7F91, offset: 0x7F91, size: 0x8, addend: 0x0, symName: __ZNSt3__19basic_iosIcNS_11char_traitsIcEEE4fillB8ue170006Ec, symObjAddr: 0xDC0, symBinAddr: 0x100002B30, symSize: 0x74 }
  - { offsetInCU: 0x7284, offset: 0xF2C7, size: 0x8, addend: 0x0, symName: __ZNSt3__14endlB8ue170006IcNS_11char_traitsIcEEEERNS_13basic_ostreamIT_T0_EES7_, symObjAddr: 0x5B0, symBinAddr: 0x10000310C, symSize: 0x58 }
  - { offsetInCU: 0x72C4, offset: 0xF307, size: 0x8, addend: 0x0, symName: __ZNSt3__17getlineB8ue170006IcNS_11char_traitsIcEENS_9allocatorIcEEEERNS_13basic_istreamIT_T0_EES9_RNS_12basic_stringIS6_S7_T1_EE, symObjAddr: 0x634, symBinAddr: 0x100003190, symSize: 0x5C }
  - { offsetInCU: 0x7327, offset: 0xF36A, size: 0x8, addend: 0x0, symName: __ZNSt3__17getlineB8ue170006IcNS_11char_traitsIcEENS_9allocatorIcEEEERNS_13basic_istreamIT_T0_EES9_RNS_12basic_stringIS6_S7_T1_EES6_, symObjAddr: 0x18C8, symBinAddr: 0x100003938, symSize: 0x238 }
  - { offsetInCU: 0x9A8B, offset: 0x11ACE, size: 0x8, addend: 0x0, symName: __ZN3Map7ReadMapENSt3__112basic_stringIcNS0_11char_traitsIcEENS0_9allocatorIcEEEE, symObjAddr: 0x0, symBinAddr: 0x100002BA4, symSize: 0x3A4 }
  - { offsetInCU: 0x9C2C, offset: 0x11C6F, size: 0x8, addend: 0x0, symName: __ZNSt3__114basic_ifstreamIcNS_11char_traitsIcEEEC1ERKNS_12basic_stringIcS2_NS_9allocatorIcEEEEj, symObjAddr: 0x3A4, symBinAddr: 0x100002F48, symSize: 0x16C }
  - { offsetInCU: 0x9C75, offset: 0x11CB8, size: 0x8, addend: 0x0, symName: __ZNKSt3__114basic_ifstreamIcNS_11char_traitsIcEEE7is_openEv, symObjAddr: 0x510, symBinAddr: 0x1000030B4, symSize: 0x2C }
  - { offsetInCU: 0x9C9B, offset: 0x11CDE, size: 0x8, addend: 0x0, symName: __ZNSt3__113basic_ostreamIcNS_11char_traitsIcEEElsB8ue170006EPFRS3_S4_E, symObjAddr: 0x584, symBinAddr: 0x1000030E0, symSize: 0x2C }
  - { offsetInCU: 0x9CCE, offset: 0x11D11, size: 0x8, addend: 0x0, symName: __ZNSt3__112basic_stringIcNS_11char_traitsIcEENS_9allocatorIcEEEC1B8ue170006Ev, symObjAddr: 0x608, symBinAddr: 0x100003164, symSize: 0x2C }
  - { offsetInCU: 0x9CF6, offset: 0x11D39, size: 0x8, addend: 0x0, symName: __ZNSt3__16vectorINS0_I4NodeNS_9allocatorIS1_EEEENS2_IS4_EEEixB8ue170006Em, symObjAddr: 0x690, symBinAddr: 0x1000031EC, symSize: 0x2C }
  - { offsetInCU: 0x9D2B, offset: 0x11D6E, size: 0x8, addend: 0x0, symName: __ZNSt3__16vectorI4NodeNS_9allocatorIS1_EEEixB8ue170006Em, symObjAddr: 0x6BC, symBinAddr: 0x100003218, symSize: 0x24 }
  - { offsetInCU: 0x9D5F, offset: 0x11DA2, size: 0x8, addend: 0x0, symName: __ZNSt3__112basic_stringIcNS_11char_traitsIcEENS_9allocatorIcEEEixB8ue170006Em, symObjAddr: 0x6E0, symBinAddr: 0x10000323C, symSize: 0x30 }
  - { offsetInCU: 0x9D93, offset: 0x11DD6, size: 0x8, addend: 0x0, symName: __ZN4Node8setColorE5ColorS0_, symObjAddr: 0x710, symBinAddr: 0x10000326C, symSize: 0x2C }
  - { offsetInCU: 0x9DD2, offset: 0x11E15, size: 0x8, addend: 0x0, symName: __ZNSt3__114basic_ifstreamIcNS_11char_traitsIcEEE5closeEv, symObjAddr: 0x73C, symBinAddr: 0x100003298, symSize: 0x58 }
  - { offsetInCU: 0x9DFE, offset: 0x11E41, size: 0x8, addend: 0x0, symName: __ZNSt3__114basic_ifstreamIcNS_11char_traitsIcEEED1Ev, symObjAddr: 0x794, symBinAddr: 0x1000032F0, symSize: 0x40 }
  - { offsetInCU: 0x9E29, offset: 0x11E6C, size: 0x8, addend: 0x0, symName: __ZN3Map8PrintMapEy, symObjAddr: 0x7D4, symBinAddr: 0x100003330, symSize: 0xE8 }
  - { offsetInCU: 0x9E99, offset: 0x11EDC, size: 0x8, addend: 0x0, symName: __ZN3Map7IslegalEii, symObjAddr: 0x8BC, symBinAddr: 0x100003418, symSize: 0x1E8 }
  - { offsetInCU: 0x9EDC, offset: 0x11F1F, size: 0x8, addend: 0x0, symName: __ZNKSt3__16vectorINS0_I4NodeNS_9allocatorIS1_EEEENS2_IS4_EEE4sizeB8ue170006Ev, symObjAddr: 0xAA4, symBinAddr: 0x100003600, symSize: 0x28 }
  - { offsetInCU: 0x9F00, offset: 0x11F43, size: 0x8, addend: 0x0, symName: __ZNKSt3__16vectorI4NodeNS_9allocatorIS1_EEE4sizeB8ue170006Ev, symObjAddr: 0xACC, symBinAddr: 0x100003628, symSize: 0x28 }
  - { offsetInCU: 0x9F24, offset: 0x11F67, size: 0x8, addend: 0x0, symName: __ZNSt3__114basic_ifstreamIcNS_11char_traitsIcEEED2Ev, symObjAddr: 0xAF4, symBinAddr: 0x100003650, symSize: 0x64 }
  - { offsetInCU: 0x9F5C, offset: 0x11F9F, size: 0x8, addend: 0x0, symName: __ZTv0_n24_NSt3__114basic_ifstreamIcNS_11char_traitsIcEEED1Ev, symObjAddr: 0xB58, symBinAddr: 0x1000036B4, symSize: 0x28 }
  - { offsetInCU: 0x9F73, offset: 0x11FB6, size: 0x8, addend: 0x0, symName: __ZNSt3__112basic_stringIcNS_11char_traitsIcEENS_9allocatorIcEEEC2B8ue170006Ev, symObjAddr: 0xB80, symBinAddr: 0x1000036DC, symSize: 0x48 }
  - { offsetInCU: 0x9F9A, offset: 0x11FDD, size: 0x8, addend: 0x0, symName: __ZNSt3__112basic_stringIcNS_11char_traitsIcEENS_9allocatorIcEEE14__default_initB8ue170006Ev, symObjAddr: 0xC10, symBinAddr: 0x100003724, symSize: 0x40 }
  - { offsetInCU: 0x9FBE, offset: 0x12001, size: 0x8, addend: 0x0, symName: __ZNSt3__117__compressed_pairINS_12basic_stringIcNS_11char_traitsIcEENS_9allocatorIcEEE5__repES5_E5firstB8ue170006Ev, symObjAddr: 0xD0C, symBinAddr: 0x100003764, symSize: 0x24 }
  - { offsetInCU: 0x9FE3, offset: 0x12026, size: 0x8, addend: 0x0, symName: __ZNSt3__122__compressed_pair_elemINS_12basic_stringIcNS_11char_traitsIcEENS_9allocatorIcEEE5__repELi0ELb0EE5__getB8ue170006Ev, symObjAddr: 0xD30, symBinAddr: 0x100003788, symSize: 0x14 }
  - { offsetInCU: 0xA007, offset: 0x1204A, size: 0x8, addend: 0x0, symName: __ZNSt3__19basic_iosIcNS_11char_traitsIcEEEC2B8ue170006Ev, symObjAddr: 0xD44, symBinAddr: 0x10000379C, symSize: 0x44 }
  - { offsetInCU: 0xA02F, offset: 0x12072, size: 0x8, addend: 0x0, symName: __ZNSt3__113basic_istreamIcNS_11char_traitsIcEEEC2B8ue170006EPNS_15basic_streambufIcS2_EE, symObjAddr: 0xD88, symBinAddr: 0x1000037E0, symSize: 0x64 }
  - { offsetInCU: 0xA070, offset: 0x120B3, size: 0x8, addend: 0x0, symName: __ZNSt3__113basic_filebufIcNS_11char_traitsIcEEE4openERKNS_12basic_stringIcS2_NS_9allocatorIcEEEEj, symObjAddr: 0xDEC, symBinAddr: 0x100003844, symSize: 0x44 }
  - { offsetInCU: 0xA0B3, offset: 0x120F6, size: 0x8, addend: 0x0, symName: __ZNSt3__18ios_baseC2B8ue170006Ev, symObjAddr: 0xE5C, symBinAddr: 0x100003888, symSize: 0x24 }
  - { offsetInCU: 0xA0DA, offset: 0x1211D, size: 0x8, addend: 0x0, symName: __ZNSt3__19basic_iosIcNS_11char_traitsIcEEE4initB8ue170006EPNS_15basic_streambufIcS2_EE, symObjAddr: 0xE80, symBinAddr: 0x1000038AC, symSize: 0x44 }
  - { offsetInCU: 0xA10F, offset: 0x12152, size: 0x8, addend: 0x0, symName: __ZNKSt3__112basic_stringIcNS_11char_traitsIcEENS_9allocatorIcEEE5c_strB8ue170006Ev, symObjAddr: 0xECC, symBinAddr: 0x1000038F0, symSize: 0x24 }
  - { offsetInCU: 0xA134, offset: 0x12177, size: 0x8, addend: 0x0, symName: __ZNKSt3__113basic_filebufIcNS_11char_traitsIcEEE7is_openEv, symObjAddr: 0x1088, symBinAddr: 0x100003914, symSize: 0x24 }
  - { offsetInCU: 0xA196, offset: 0x121D9, size: 0x8, addend: 0x0, symName: __ZNKSt3__113basic_istreamIcNS_11char_traitsIcEEE6sentrycvbB8ue170006Ev, symObjAddr: 0x1B00, symBinAddr: 0x100003B70, symSize: 0x1C }
  - { offsetInCU: 0xA1B9, offset: 0x121FC, size: 0x8, addend: 0x0, symName: __ZNSt3__112basic_stringIcNS_11char_traitsIcEENS_9allocatorIcEEE5clearB8ue170006Ev, symObjAddr: 0x1B1C, symBinAddr: 0x100003B8C, symSize: 0x78 }
  - { offsetInCU: 0xA1DF, offset: 0x12222, size: 0x8, addend: 0x0, symName: __ZNSt3__115basic_streambufIcNS_11char_traitsIcEEE6sbumpcB8ue170006Ev, symObjAddr: 0x1B94, symBinAddr: 0x100003C04, symSize: 0x78 }
  - { offsetInCU: 0xA204, offset: 0x12247, size: 0x8, addend: 0x0, symName: __ZNSt3__111char_traitsIcE12to_char_typeB8ue170006Ei, symObjAddr: 0x1C0C, symBinAddr: 0x100003C7C, symSize: 0x18 }
  - { offsetInCU: 0xA226, offset: 0x12269, size: 0x8, addend: 0x0, symName: __ZNSt3__111char_traitsIcE2eqEcc, symObjAddr: 0x1C24, symBinAddr: 0x100003C94, symSize: 0x28 }
  - { offsetInCU: 0xA255, offset: 0x12298, size: 0x8, addend: 0x0, symName: __ZNKSt3__112basic_stringIcNS_11char_traitsIcEENS_9allocatorIcEEE4sizeB8ue170006Ev, symObjAddr: 0x1C4C, symBinAddr: 0x100003CBC, symSize: 0x54 }
  - { offsetInCU: 0xA279, offset: 0x122BC, size: 0x8, addend: 0x0, symName: __ZNKSt3__112basic_stringIcNS_11char_traitsIcEENS_9allocatorIcEEE8max_sizeB8ue170006Ev, symObjAddr: 0x1CA0, symBinAddr: 0x100003D10, symSize: 0xAC }
  - { offsetInCU: 0xA2CB, offset: 0x1230E, size: 0x8, addend: 0x0, symName: __ZNSt3__18ios_base18__setstate_nothrowB8ue170006Ej, symObjAddr: 0x1D4C, symBinAddr: 0x100003DBC, symSize: 0x64 }
  - { offsetInCU: 0xA2FD, offset: 0x12340, size: 0x8, addend: 0x0, symName: __ZNKSt3__19basic_iosIcNS_11char_traitsIcEEE10exceptionsB8ue170006Ev, symObjAddr: 0x1DB0, symBinAddr: 0x100003E20, symSize: 0x24 }
  - { offsetInCU: 0xA322, offset: 0x12365, size: 0x8, addend: 0x0, symName: __ZNSt3__111char_traitsIcE6assignB8ue170006ERcRKc, symObjAddr: 0x1DD4, symBinAddr: 0x100003E44, symSize: 0x24 }
  - { offsetInCU: 0xA351, offset: 0x12394, size: 0x8, addend: 0x0, symName: __ZNSt3__112basic_stringIcNS_11char_traitsIcEENS_9allocatorIcEEE18__get_long_pointerB8ue170006Ev, symObjAddr: 0x1DF8, symBinAddr: 0x100003E68, symSize: 0x28 }
  - { offsetInCU: 0xA375, offset: 0x123B8, size: 0x8, addend: 0x0, symName: __ZNSt3__112basic_stringIcNS_11char_traitsIcEENS_9allocatorIcEEE15__set_long_sizeB8ue170006Em, symObjAddr: 0x1E20, symBinAddr: 0x100003E90, symSize: 0x38 }
  - { offsetInCU: 0xA3A8, offset: 0x123EB, size: 0x8, addend: 0x0, symName: __ZNSt3__112basic_stringIcNS_11char_traitsIcEENS_9allocatorIcEEE19__get_short_pointerB8ue170006Ev, symObjAddr: 0x1E58, symBinAddr: 0x100003EC8, symSize: 0x28 }
  - { offsetInCU: 0xA3CC, offset: 0x1240F, size: 0x8, addend: 0x0, symName: __ZNSt3__112basic_stringIcNS_11char_traitsIcEENS_9allocatorIcEEE16__set_short_sizeB8ue170006Em, symObjAddr: 0x1E80, symBinAddr: 0x100003EF0, symSize: 0x78 }
  - { offsetInCU: 0xA400, offset: 0x12443, size: 0x8, addend: 0x0, symName: __ZNSt3__114pointer_traitsIPcE10pointer_toB8ue170006ERc, symObjAddr: 0x1EF8, symBinAddr: 0x100003F68, symSize: 0x14 }
  - { offsetInCU: 0xA422, offset: 0x12465, size: 0x8, addend: 0x0, symName: __ZNSt3__111char_traitsIcE11to_int_typeB8ue170006Ec, symObjAddr: 0x1F0C, symBinAddr: 0x100003F7C, symSize: 0x14 }
  - { offsetInCU: 0xA444, offset: 0x12487, size: 0x8, addend: 0x0, symName: __ZNKSt3__112basic_stringIcNS_11char_traitsIcEENS_9allocatorIcEEE15__get_long_sizeB8ue170006Ev, symObjAddr: 0x1F20, symBinAddr: 0x100003F90, symSize: 0x28 }
  - { offsetInCU: 0xA468, offset: 0x124AB, size: 0x8, addend: 0x0, symName: __ZNKSt3__112basic_stringIcNS_11char_traitsIcEENS_9allocatorIcEEE16__get_short_sizeB8ue170006Ev, symObjAddr: 0x1F48, symBinAddr: 0x100003FB8, symSize: 0x34 }
  - { offsetInCU: 0xA497, offset: 0x124DA, size: 0x8, addend: 0x0, symName: __ZNSt3__116allocator_traitsINS_9allocatorIcEEE8max_sizeB8ue170006IS2_vEEmRKS2_, symObjAddr: 0x1F7C, symBinAddr: 0x100003FEC, symSize: 0x24 }
  - { offsetInCU: 0xA4C3, offset: 0x12506, size: 0x8, addend: 0x0, symName: __ZNKSt3__112basic_stringIcNS_11char_traitsIcEENS_9allocatorIcEEE7__allocB8ue170006Ev, symObjAddr: 0x1FA0, symBinAddr: 0x100004010, symSize: 0x24 }
  - { offsetInCU: 0xA4E8, offset: 0x1252B, size: 0x8, addend: 0x0, symName: __ZNSt3__114numeric_limitsImE3maxB8ue170006Ev, symObjAddr: 0x1FC4, symBinAddr: 0x100004034, symSize: 0x14 }
  - { offsetInCU: 0xA4FC, offset: 0x1253F, size: 0x8, addend: 0x0, symName: __ZNKSt3__19allocatorIcE8max_sizeB8ue170006Ev, symObjAddr: 0x1FD8, symBinAddr: 0x100004048, symSize: 0x14 }
  - { offsetInCU: 0xA51F, offset: 0x12562, size: 0x8, addend: 0x0, symName: __ZNKSt3__117__compressed_pairINS_12basic_stringIcNS_11char_traitsIcEENS_9allocatorIcEEE5__repES5_E6secondB8ue170006Ev, symObjAddr: 0x1FEC, symBinAddr: 0x10000405C, symSize: 0x24 }
  - { offsetInCU: 0xA544, offset: 0x12587, size: 0x8, addend: 0x0, symName: __ZNKSt3__122__compressed_pair_elemINS_9allocatorIcEELi1ELb1EE5__getB8ue170006Ev, symObjAddr: 0x2010, symBinAddr: 0x100004080, symSize: 0x14 }
  - { offsetInCU: 0xA568, offset: 0x125AB, size: 0x8, addend: 0x0, symName: __ZNSt3__123__libcpp_numeric_limitsImLb1EE3maxB8ue170006Ev, symObjAddr: 0x2024, symBinAddr: 0x100004094, symSize: 0x8 }
  - { offsetInCU: 0xA57B, offset: 0x125BE, size: 0x8, addend: 0x0, symName: __ZNKSt3__18ios_base10exceptionsB8ue170006Ev, symObjAddr: 0x202C, symBinAddr: 0x10000409C, symSize: 0x18 }
  - { offsetInCU: 0xA5A0, offset: 0x125E3, size: 0x8, addend: 0x0, symName: __ZNSt3__112basic_stringIcNS_11char_traitsIcEENS_9allocatorIcEEE13__get_pointerB8ue170006Ev, symObjAddr: 0x2044, symBinAddr: 0x1000040B4, symSize: 0x54 }
  - { offsetInCU: 0x8F33, offset: 0x1B594, size: 0x8, addend: 0x0, symName: __ZNSt3__112__to_addressB8ue170006INS_6vectorI4NodeNS_9allocatorIS2_EEEEEEPT_S7_, symObjAddr: 0x1C1C, symBinAddr: 0x100005BA8, symSize: 0x14 }
  - { offsetInCU: 0x8F68, offset: 0x1B5C9, size: 0x8, addend: 0x0, symName: __ZNSt3__122__make_exception_guardB8ue170006INS_6vectorI4NodeNS_9allocatorIS2_EEE16__destroy_vectorEEENS_28__exception_guard_exceptionsIT_EES8_, symObjAddr: 0x1FA4, symBinAddr: 0x100005F08, symSize: 0x40 }
  - { offsetInCU: 0x8F9D, offset: 0x1B5FE, size: 0x8, addend: 0x0, symName: __ZNSt3__119__allocate_at_leastB8ue170006INS_9allocatorI4NodeEEEENS_19__allocation_resultINS_16allocator_traitsIT_E7pointerEEERS6_m, symObjAddr: 0x228C, symBinAddr: 0x1000061F0, symSize: 0x40 }
  - { offsetInCU: 0x8FE0, offset: 0x1B641, size: 0x8, addend: 0x0, symName: __ZNSt3__13minB8ue170006ImEERKT_S3_S3_, symObjAddr: 0x23C8, symBinAddr: 0x10000632C, symSize: 0x2C }
  - { offsetInCU: 0x922E, offset: 0x1B88F, size: 0x8, addend: 0x0, symName: __ZNSt3__13minB8ue170006ImNS_6__lessIvvEEEERKT_S5_S5_T0_, symObjAddr: 0x242C, symBinAddr: 0x100006390, symSize: 0x54 }
  - { offsetInCU: 0x92CF, offset: 0x1B930, size: 0x8, addend: 0x0, symName: __ZNSt3__120__throw_length_errorB8ue170006EPKc, symObjAddr: 0x24D0, symBinAddr: 0x100006434, symSize: 0x64 }
  - { offsetInCU: 0x92FA, offset: 0x1B95B, size: 0x8, addend: 0x0, symName: __ZNSt3__117__libcpp_allocateB8ue170006Emm, symObjAddr: 0x2640, symBinAddr: 0x1000065A4, symSize: 0x28 }
  - { offsetInCU: 0x9337, offset: 0x1B998, size: 0x8, addend: 0x0, symName: __ZNSt3__121__libcpp_operator_newB8ue170006IJmEEEPvDpT_, symObjAddr: 0x2668, symBinAddr: 0x1000065CC, symSize: 0x24 }
  - { offsetInCU: 0x9372, offset: 0x1B9D3, size: 0x8, addend: 0x0, symName: __ZNSt3__112__to_addressB8ue170006I4NodeEEPT_S3_, symObjAddr: 0x2784, symBinAddr: 0x1000066E8, symSize: 0x14 }
  - { offsetInCU: 0x93A7, offset: 0x1BA08, size: 0x8, addend: 0x0, symName: __ZNSt3__130__uninitialized_allocator_copyB8ue170006INS_9allocatorI4NodeEEPS2_S4_S4_EET2_RT_T0_T1_S5_, symObjAddr: 0x2834, symBinAddr: 0x100006798, symSize: 0x80 }
  - { offsetInCU: 0x9444, offset: 0x1BAA5, size: 0x8, addend: 0x0, symName: __ZNSt3__114__unwrap_rangeB8ue170006IP4NodeS2_EENS_4pairIT0_S4_EET_S6_, symObjAddr: 0x2924, symBinAddr: 0x100006888, symSize: 0x60 }
  - { offsetInCU: 0x9490, offset: 0x1BAF1, size: 0x8, addend: 0x0, symName: __ZNSt3__135__uninitialized_allocator_copy_implB8ue170006INS_9allocatorI4NodeEES2_S2_S2_LPv0EEEPT2_RT_PT0_SA_S6_, symObjAddr: 0x2984, symBinAddr: 0x1000068E8, symSize: 0x38 }
  - { offsetInCU: 0x9513, offset: 0x1BB74, size: 0x8, addend: 0x0, symName: __ZNSt3__113__unwrap_iterB8ue170006IP4NodeNS_18__unwrap_iter_implIS2_Lb1EEELi0EEEDTclsrT0_8__unwrapclsr3stdE7declvalIT_EEEES6_, symObjAddr: 0x29BC, symBinAddr: 0x100006920, symSize: 0x24 }
  - { offsetInCU: 0x9558, offset: 0x1BBB9, size: 0x8, addend: 0x0, symName: __ZNSt3__113__rewrap_iterB8ue170006IP4NodeS2_NS_18__unwrap_iter_implIS2_Lb1EEEEET_S5_T0_, symObjAddr: 0x29E0, symBinAddr: 0x100006944, symSize: 0x3C }
  - { offsetInCU: 0x95AD, offset: 0x1BC0E, size: 0x8, addend: 0x0, symName: __ZNSt3__19make_pairB8ue170006IP4NodeS2_EENS_4pairINS_18__unwrap_ref_decayIT_E4typeENS4_IT0_E4typeEEEOS5_OS8_, symObjAddr: 0x2A1C, symBinAddr: 0x100006980, symSize: 0x38 }
  - { offsetInCU: 0x9701, offset: 0x1BD62, size: 0x8, addend: 0x0, symName: __ZNSt3__14copyB8ue170006IP4NodeS2_EET0_T_S4_S3_, symObjAddr: 0x2AC4, symBinAddr: 0x100006A28, symSize: 0x40 }
  - { offsetInCU: 0x975B, offset: 0x1BDBC, size: 0x8, addend: 0x0, symName: __ZNSt3__16__copyB8ue170006INS_17_ClassicAlgPolicyEP4NodeS3_S3_EENS_4pairIT0_T2_EES5_T1_S6_, symObjAddr: 0x2B04, symBinAddr: 0x100006A68, symSize: 0x44 }
  - { offsetInCU: 0x97C7, offset: 0x1BE28, size: 0x8, addend: 0x0, symName: __ZNSt3__123__dispatch_copy_or_moveB8ue170006INS_17_ClassicAlgPolicyENS_11__copy_loopIS1_EENS_14__copy_trivialEP4NodeS6_S6_EENS_4pairIT2_T4_EES8_T3_S9_, symObjAddr: 0x2B48, symBinAddr: 0x100006AAC, symSize: 0x44 }
  - { offsetInCU: 0x9845, offset: 0x1BEA6, size: 0x8, addend: 0x0, symName: __ZNSt3__121__unwrap_and_dispatchB8ue170006INS_10__overloadINS_11__copy_loopINS_17_ClassicAlgPolicyEEENS_14__copy_trivialEEEP4NodeS8_S8_Li0EEENS_4pairIT0_T2_EESA_T1_SB_, symObjAddr: 0x2B8C, symBinAddr: 0x100006AF0, symSize: 0xB4 }
  - { offsetInCU: 0x991D, offset: 0x1BF7E, size: 0x8, addend: 0x0, symName: __ZNSt3__114__rewrap_rangeB8ue170006IP4NodeS2_EET_S3_T0_, symObjAddr: 0x2C88, symBinAddr: 0x100006BEC, symSize: 0x2C }
  - { offsetInCU: 0x9969, offset: 0x1BFCA, size: 0x8, addend: 0x0, symName: __ZNSt3__119__copy_trivial_implB8ue170006I4NodeS1_EENS_4pairIPT_PT0_EES4_S4_S6_, symObjAddr: 0x2CB4, symBinAddr: 0x100006C18, symSize: 0x80 }
  - { offsetInCU: 0x99D2, offset: 0x1C033, size: 0x8, addend: 0x0, symName: __ZNSt3__119__constexpr_memmoveB8ue170006I4NodeS1_Li0EEEPT_S3_PT0_NS_15__element_countE, symObjAddr: 0x2D34, symBinAddr: 0x100006C98, symSize: 0x64 }
  - { offsetInCU: 0x9A42, offset: 0x1C0A3, size: 0x8, addend: 0x0, symName: __ZNSt3__19make_pairB8ue170006IRP4NodeS2_EENS_4pairINS_18__unwrap_ref_decayIT_E4typeENS5_IT0_E4typeEEEOS6_OS9_, symObjAddr: 0x2D98, symBinAddr: 0x100006CFC, symSize: 0x38 }
  - { offsetInCU: 0x9AE5, offset: 0x1C146, size: 0x8, addend: 0x0, symName: __ZNSt3__119__libcpp_deallocateB8ue170006EPvmm, symObjAddr: 0x31D4, symBinAddr: 0x100007138, symSize: 0x30 }
  - { offsetInCU: 0x9B2E, offset: 0x1C18F, size: 0x8, addend: 0x0, symName: __ZNSt3__127__do_deallocate_handle_sizeB8ue170006IJEEEvPvmDpT_, symObjAddr: 0x3204, symBinAddr: 0x100007168, symSize: 0x28 }
  - { offsetInCU: 0x9B6E, offset: 0x1C1CF, size: 0x8, addend: 0x0, symName: __ZNSt3__124__libcpp_operator_deleteB8ue170006IJPvEEEvDpT_, symObjAddr: 0x322C, symBinAddr: 0x100007190, symSize: 0x24 }
  - { offsetInCU: 0x9BA6, offset: 0x1C207, size: 0x8, addend: 0x0, symName: __ZNSt3__13maxB8ue170006ImEERKT_S3_S3_, symObjAddr: 0x3364, symBinAddr: 0x1000072C8, symSize: 0x2C }
  - { offsetInCU: 0x9BE9, offset: 0x1C24A, size: 0x8, addend: 0x0, symName: __ZNSt3__13maxB8ue170006ImNS_6__lessIvvEEEERKT_S5_S5_T0_, symObjAddr: 0x348C, symBinAddr: 0x1000073F0, symSize: 0x54 }
  - { offsetInCU: 0x9C43, offset: 0x1C2A4, size: 0x8, addend: 0x0, symName: __ZNSt3__119__allocate_at_leastB8ue170006INS_9allocatorINS_6vectorI4NodeNS1_IS3_EEEEEEEENS_19__allocation_resultINS_16allocator_traitsIT_E7pointerEEERS9_m, symObjAddr: 0x35FC, symBinAddr: 0x100007560, symSize: 0x40 }
  - { offsetInCU: 0x9C86, offset: 0x1C2E7, size: 0x8, addend: 0x0, symName: __ZNSt3__142__uninitialized_allocator_move_if_noexceptB8ue170006INS_9allocatorINS_6vectorI4NodeNS1_IS3_EEEEEENS_16reverse_iteratorIPS5_EES9_S9_EET2_RT_T0_T1_SA_, symObjAddr: 0x395C, symBinAddr: 0x1000078C0, symSize: 0x12C }
  - { offsetInCU: 0x9D26, offset: 0x1C387, size: 0x8, addend: 0x0, symName: __ZNSt3__14swapB8ue170006IPNS_6vectorI4NodeNS_9allocatorIS2_EEEEEENS_9enable_ifIXaasr21is_move_constructibleIT_EE5valuesr18is_move_assignableIS8_EE5valueEvE4typeERS8_SB_, symObjAddr: 0x3AD4, symBinAddr: 0x100007A38, symSize: 0x3C }
  - { offsetInCU: 0x9D78, offset: 0x1C3D9, size: 0x8, addend: 0x0, symName: __ZNSt3__122__make_exception_guardB8ue170006INS_29_AllocatorDestroyRangeReverseINS_9allocatorINS_6vectorI4NodeNS2_IS4_EEEEEENS_16reverse_iteratorIPS6_EEEEEENS_28__exception_guard_exceptionsIT_EESD_, symObjAddr: 0x3C20, symBinAddr: 0x100007B84, symSize: 0x4C }
  - { offsetInCU: 0x9DAE, offset: 0x1C40F, size: 0x8, addend: 0x0, symName: __ZNSt3__1neB8ue170006IPNS_6vectorI4NodeNS_9allocatorIS2_EEEES6_EEbRKNS_16reverse_iteratorIT_EERKNS7_IT0_EE, symObjAddr: 0x3CB0, symBinAddr: 0x100007C14, symSize: 0x48 }
  - { offsetInCU: 0x9DFA, offset: 0x1C45B, size: 0x8, addend: 0x0, symName: __ZNSt3__112__to_addressB8ue170006INS_16reverse_iteratorIPNS_6vectorI4NodeNS_9allocatorIS3_EEEEEEvEEu7__decayIDTclsr19__to_address_helperIT_EE6__callclsr3stdE7declvalIRKS9_EEEEESB_, symObjAddr: 0x3D2C, symBinAddr: 0x100007C90, symSize: 0x24 }
  - { offsetInCU: 0x9E5A, offset: 0x1C4BB, size: 0x8, addend: 0x0, symName: __ZNSt3__119__allocator_destroyB8ue170006INS_9allocatorINS_6vectorI4NodeNS1_IS3_EEEEEENS_16reverse_iteratorINS7_IPS5_EEEESA_EEvRT_T0_T1_, symObjAddr: 0x4104, symBinAddr: 0x100008068, symSize: 0x70 }
  - { offsetInCU: 0x9EC0, offset: 0x1C521, size: 0x8, addend: 0x0, symName: __ZNSt3__1neB8ue170006INS_16reverse_iteratorIPNS_6vectorI4NodeNS_9allocatorIS3_EEEEEES8_EEbRKNS1_IT_EERKNS1_IT0_EE, symObjAddr: 0x41B0, symBinAddr: 0x100008114, symSize: 0x60 }
  - { offsetInCU: 0x9F0C, offset: 0x1C56D, size: 0x8, addend: 0x0, symName: __ZNSt3__112__to_addressB8ue170006INS_16reverse_iteratorINS1_IPNS_6vectorI4NodeNS_9allocatorIS3_EEEEEEEEvEEu7__decayIDTclsr19__to_address_helperIT_EE6__callclsr3stdE7declvalIRKSA_EEEEESC_, symObjAddr: 0x423C, symBinAddr: 0x1000081A0, symSize: 0x24 }
  - { offsetInCU: 0x9F6C, offset: 0x1C5CD, size: 0x8, addend: 0x0, symName: __ZNSt3__112__to_addressB8ue170006IiEEPT_S2_, symObjAddr: 0x520C, symBinAddr: 0x100009170, symSize: 0x14 }
  - { offsetInCU: 0x9FA1, offset: 0x1C602, size: 0x8, addend: 0x0, symName: __ZNSt3__119__allocate_at_leastB8ue170006INS_9allocatorIiEEEENS_19__allocation_resultINS_16allocator_traitsIT_E7pointerEEERS5_m, symObjAddr: 0x5A9C, symBinAddr: 0x100009A00, symSize: 0x40 }
  - { offsetInCU: 0x9FE4, offset: 0x1C645, size: 0x8, addend: 0x0, symName: __ZNSt3__142__uninitialized_allocator_move_if_noexceptB8ue170006INS_9allocatorIiEENS_16reverse_iteratorIPiEES5_ivEET1_RT_T0_S9_S6_, symObjAddr: 0x5C50, symBinAddr: 0x100009BB4, symSize: 0x78 }
  - { offsetInCU: 0xA062, offset: 0x1C6C3, size: 0x8, addend: 0x0, symName: __ZNSt3__14swapB8ue170006IPiEENS_9enable_ifIXaasr21is_move_constructibleIT_EE5valuesr18is_move_assignableIS3_EE5valueEvE4typeERS3_S6_, symObjAddr: 0x5D14, symBinAddr: 0x100009C78, symSize: 0x3C }
  - { offsetInCU: 0xA0B4, offset: 0x1C715, size: 0x8, addend: 0x0, symName: __ZNSt3__14moveB8ue170006INS_16reverse_iteratorIPiEES3_EET0_T_S5_S4_, symObjAddr: 0x5DFC, symBinAddr: 0x100009D60, symSize: 0x78 }
  - { offsetInCU: 0xA10E, offset: 0x1C76F, size: 0x8, addend: 0x0, symName: __ZNSt3__16__moveB8ue170006INS_17_ClassicAlgPolicyENS_16reverse_iteratorIPiEES4_S4_EENS_4pairIT0_T2_EES6_T1_S7_, symObjAddr: 0x5E74, symBinAddr: 0x100009DD8, symSize: 0x64 }
  - { offsetInCU: 0xA17A, offset: 0x1C7DB, size: 0x8, addend: 0x0, symName: __ZNSt3__123__dispatch_copy_or_moveB8ue170006INS_17_ClassicAlgPolicyENS_11__move_loopIS1_EENS_14__move_trivialENS_16reverse_iteratorIPiEES7_S7_EENS_4pairIT2_T4_EES9_T3_SA_, symObjAddr: 0x5ED8, symBinAddr: 0x100009E3C, symSize: 0x64 }
  - { offsetInCU: 0xA1F8, offset: 0x1C859, size: 0x8, addend: 0x0, symName: __ZNSt3__121__unwrap_and_dispatchB8ue170006INS_10__overloadINS_11__move_loopINS_17_ClassicAlgPolicyEEENS_14__move_trivialEEENS_16reverse_iteratorIPiEES9_S9_Li0EEENS_4pairIT0_T2_EESB_T1_SC_, symObjAddr: 0x5F3C, symBinAddr: 0x100009EA0, symSize: 0x12C }
  - { offsetInCU: 0xA28B, offset: 0x1C8EC, size: 0x8, addend: 0x0, symName: __ZNSt3__114__unwrap_rangeB8ue170006INS_16reverse_iteratorIPiEES3_EENS_4pairIT0_S5_EET_S7_, symObjAddr: 0x6068, symBinAddr: 0x100009FCC, symSize: 0x84 }
  - { offsetInCU: 0xA407, offset: 0x1CA68, size: 0x8, addend: 0x0, symName: __ZNSt3__113__unwrap_iterB8ue170006INS_16reverse_iteratorIPiEENS_18__unwrap_iter_implIS3_Lb0EEELi0EEEDTclsrT0_8__unwrapclsr3stdE7declvalIT_EEEES7_, symObjAddr: 0x618C, symBinAddr: 0x10000A0F0, symSize: 0x44 }
  - { offsetInCU: 0xA44C, offset: 0x1CAAD, size: 0x8, addend: 0x0, symName: __ZNSt3__19make_pairB8ue170006INS_16reverse_iteratorIPiEES3_EENS_4pairINS_18__unwrap_ref_decayIT_E4typeENS5_IT0_E4typeEEEOS6_OS9_, symObjAddr: 0x61D0, symBinAddr: 0x10000A134, symSize: 0x38 }
  - { offsetInCU: 0xA49B, offset: 0x1CAFC, size: 0x8, addend: 0x0, symName: __ZNSt3__114__rewrap_rangeB8ue170006INS_16reverse_iteratorIPiEES3_EET_S4_T0_, symObjAddr: 0x6208, symBinAddr: 0x10000A16C, symSize: 0x5C }
  - { offsetInCU: 0xA4E7, offset: 0x1CB48, size: 0x8, addend: 0x0, symName: __ZNSt3__113__rewrap_iterB8ue170006INS_16reverse_iteratorIPiEES3_NS_18__unwrap_iter_implIS3_Lb0EEEEET_S6_T0_, symObjAddr: 0x6264, symBinAddr: 0x10000A1C8, symSize: 0x74 }
  - { offsetInCU: 0xA53C, offset: 0x1CB9D, size: 0x8, addend: 0x0, symName: __ZNSt3__1neB8ue170006IPiS1_EEbRKNS_16reverse_iteratorIT_EERKNS2_IT0_EE, symObjAddr: 0x62D8, symBinAddr: 0x10000A23C, symSize: 0x48 }
  - { offsetInCU: 0xA63C, offset: 0x1CC9D, size: 0x8, addend: 0x0, symName: __ZNSt3__1miB8ue170006IPKiS2_EEDTmicldtfp_4baseEcldtfp0_4baseEERKNS_11__wrap_iterIT_EERKNS4_IT0_EE, symObjAddr: 0x68D8, symBinAddr: 0x10000A83C, symSize: 0x48 }
  - { offsetInCU: 0xA688, offset: 0x1CCE9, size: 0x8, addend: 0x0, symName: __ZNSt3__14moveB8ue170006IPiS1_EET0_T_S3_S2_, symObjAddr: 0x6998, symBinAddr: 0x10000A8FC, symSize: 0x40 }
  - { offsetInCU: 0xA6E2, offset: 0x1CD43, size: 0x8, addend: 0x0, symName: __ZNSt3__16__moveB8ue170006INS_17_ClassicAlgPolicyEPiS2_S2_EENS_4pairIT0_T2_EES4_T1_S5_, symObjAddr: 0x6B58, symBinAddr: 0x10000AABC, symSize: 0x44 }
  - { offsetInCU: 0xA74E, offset: 0x1CDAF, size: 0x8, addend: 0x0, symName: __ZNSt3__123__dispatch_copy_or_moveB8ue170006INS_17_ClassicAlgPolicyENS_11__move_loopIS1_EENS_14__move_trivialEPiS5_S5_EENS_4pairIT2_T4_EES7_T3_S8_, symObjAddr: 0x6B9C, symBinAddr: 0x10000AB00, symSize: 0x44 }
  - { offsetInCU: 0xA7CC, offset: 0x1CE2D, size: 0x8, addend: 0x0, symName: __ZNSt3__121__unwrap_and_dispatchB8ue170006INS_10__overloadINS_11__move_loopINS_17_ClassicAlgPolicyEEENS_14__move_trivialEEEPiS7_S7_Li0EEENS_4pairIT0_T2_EES9_T1_SA_, symObjAddr: 0x6BE0, symBinAddr: 0x10000AB44, symSize: 0xB4 }
  - { offsetInCU: 0xA85D, offset: 0x1CEBE, size: 0x8, addend: 0x0, symName: __ZNSt3__114__unwrap_rangeB8ue170006IPiS1_EENS_4pairIT0_S3_EET_S5_, symObjAddr: 0x6C94, symBinAddr: 0x10000ABF8, symSize: 0x60 }
  - { offsetInCU: 0xA9F5, offset: 0x1D056, size: 0x8, addend: 0x0, symName: __ZNSt3__113__unwrap_iterB8ue170006IPiNS_18__unwrap_iter_implIS1_Lb1EEELi0EEEDTclsrT0_8__unwrapclsr3stdE7declvalIT_EEEES5_, symObjAddr: 0x6D3C, symBinAddr: 0x10000ACA0, symSize: 0x24 }
  - { offsetInCU: 0xAA3A, offset: 0x1D09B, size: 0x8, addend: 0x0, symName: __ZNSt3__19make_pairB8ue170006IPiS1_EENS_4pairINS_18__unwrap_ref_decayIT_E4typeENS3_IT0_E4typeEEEOS4_OS7_, symObjAddr: 0x6D60, symBinAddr: 0x10000ACC4, symSize: 0x38 }
  - { offsetInCU: 0xAA89, offset: 0x1D0EA, size: 0x8, addend: 0x0, symName: __ZNSt3__114__rewrap_rangeB8ue170006IPiS1_EET_S2_T0_, symObjAddr: 0x6D98, symBinAddr: 0x10000ACFC, symSize: 0x2C }
  - { offsetInCU: 0xAAD5, offset: 0x1D136, size: 0x8, addend: 0x0, symName: __ZNSt3__113__rewrap_iterB8ue170006IPiS1_NS_18__unwrap_iter_implIS1_Lb1EEEEET_S4_T0_, symObjAddr: 0x6DC4, symBinAddr: 0x10000AD28, symSize: 0x3C }
  - { offsetInCU: 0xAB2A, offset: 0x1D18B, size: 0x8, addend: 0x0, symName: __ZNSt3__119__copy_trivial_implB8ue170006IiiEENS_4pairIPT_PT0_EES3_S3_S5_, symObjAddr: 0x6E00, symBinAddr: 0x10000AD64, symSize: 0x80 }
  - { offsetInCU: 0xAB93, offset: 0x1D1F4, size: 0x8, addend: 0x0, symName: __ZNSt3__119__constexpr_memmoveB8ue170006IiiLi0EEEPT_S2_PT0_NS_15__element_countE, symObjAddr: 0x6E80, symBinAddr: 0x10000ADE4, symSize: 0x64 }
  - { offsetInCU: 0xAC03, offset: 0x1D264, size: 0x8, addend: 0x0, symName: __ZNSt3__19make_pairB8ue170006IRPiS1_EENS_4pairINS_18__unwrap_ref_decayIT_E4typeENS4_IT0_E4typeEEEOS5_OS8_, symObjAddr: 0x6EE4, symBinAddr: 0x10000AE48, symSize: 0x38 }
  - { offsetInCU: 0xAF32, offset: 0x1D593, size: 0x8, addend: 0x0, symName: __ZSt28__throw_bad_array_new_lengthB8ue170006v, symObjAddr: 0x260C, symBinAddr: 0x100006570, symSize: 0x34 }
  - { offsetInCU: 0xB3C5, offset: 0x1DA26, size: 0x8, addend: 0x0, symName: __ZNSt3__16vectorINS0_I4NodeNS_9allocatorIS1_EEEENS2_IS4_EEE26__swap_out_circular_bufferERNS_14__split_bufferIS4_RS5_EE, symObjAddr: 0x1A38, symBinAddr: 0x1000059C4, symSize: 0x110 }
  - { offsetInCU: 0xB5F0, offset: 0x1DC51, size: 0x8, addend: 0x0, symName: __ZNSt3__16vectorIiNS_9allocatorIiEEE26__swap_out_circular_bufferERNS_14__split_bufferIiRS2_EE, symObjAddr: 0x573C, symBinAddr: 0x1000096A0, symSize: 0x110 }
  - { offsetInCU: 0xD478, offset: 0x1FAD9, size: 0x8, addend: 0x0, symName: __Z12MazeGeneratev, symObjAddr: 0x0, symBinAddr: 0x100004108, symSize: 0xB30 }
  - { offsetInCU: 0xD672, offset: 0x1FCD3, size: 0x8, addend: 0x0, symName: __ZNSt3__14pairIiiEC1B8ue170006IiiLPv0EEEOT_OT0_, symObjAddr: 0xB30, symBinAddr: 0x100004C38, symSize: 0x3C }
  - { offsetInCU: 0xD7D7, offset: 0x1FE38, size: 0x8, addend: 0x0, symName: __ZN3MapC1EiiNSt3__14pairIiiEES2_, symObjAddr: 0xB6C, symBinAddr: 0x100004C74, symSize: 0x4C }
  - { offsetInCU: 0xD837, offset: 0x1FE98, size: 0x8, addend: 0x0, symName: __ZNSt3__16vectorIiNS_9allocatorIiEEEC1B8ue170006Ev, symObjAddr: 0xC34, symBinAddr: 0x100004CC0, symSize: 0x2C }
  - { offsetInCU: 0xD85E, offset: 0x1FEBF, size: 0x8, addend: 0x0, symName: __ZNSt3__16vectorIiNS_9allocatorIiEEE9push_backB8ue170006EOi, symObjAddr: 0xC60, symBinAddr: 0x100004CEC, symSize: 0x6C }
  - { offsetInCU: 0xD893, offset: 0x1FEF4, size: 0x8, addend: 0x0, symName: __ZNSt3__16vectorIiNS_9allocatorIiEEE9push_backB8ue170006ERKi, symObjAddr: 0xCCC, symBinAddr: 0x100004D58, symSize: 0x6C }
  - { offsetInCU: 0xD8C9, offset: 0x1FF2A, size: 0x8, addend: 0x0, symName: __ZNKSt3__16vectorIiNS_9allocatorIiEEE4sizeB8ue170006Ev, symObjAddr: 0xD38, symBinAddr: 0x100004DC4, symSize: 0x28 }
  - { offsetInCU: 0xD8ED, offset: 0x1FF4E, size: 0x8, addend: 0x0, symName: __ZNSt3__16vectorIiNS_9allocatorIiEEEixB8ue170006Em, symObjAddr: 0xD60, symBinAddr: 0x100004DEC, symSize: 0x24 }
  - { offsetInCU: 0xD922, offset: 0x1FF83, size: 0x8, addend: 0x0, symName: __ZNSt3__16vectorIiNS_9allocatorIiEEE4backB8ue170006Ev, symObjAddr: 0xD84, symBinAddr: 0x100004E10, symSize: 0x1C }
  - { offsetInCU: 0xD945, offset: 0x1FFA6, size: 0x8, addend: 0x0, symName: __ZNSt3__16vectorIiNS_9allocatorIiEEE5beginB8ue170006Ev, symObjAddr: 0xDA0, symBinAddr: 0x100004E2C, symSize: 0x30 }
  - { offsetInCU: 0xD96C, offset: 0x1FFCD, size: 0x8, addend: 0x0, symName: __ZNKSt3__111__wrap_iterIPiEplB8ue170006El, symObjAddr: 0xDD0, symBinAddr: 0x100004E5C, symSize: 0x3C }
  - { offsetInCU: 0xD9AD, offset: 0x2000E, size: 0x8, addend: 0x0, symName: __ZNKSt3__111__wrap_iterIPiEdeB8ue170006Ev, symObjAddr: 0xE0C, symBinAddr: 0x100004E98, symSize: 0x18 }
  - { offsetInCU: 0xD9D0, offset: 0x20031, size: 0x8, addend: 0x0, symName: __ZNSt3__16vectorIiNS_9allocatorIiEEE5eraseB8ue170006ENS_11__wrap_iterIPKiEE, symObjAddr: 0xE24, symBinAddr: 0x100004EB0, symSize: 0x94 }
  - { offsetInCU: 0xDA2E, offset: 0x2008F, size: 0x8, addend: 0x0, symName: __ZNSt3__111__wrap_iterIPKiEC1B8ue170006IPiEERKNS0_IT_EEPNS_9enable_ifIXsr14is_convertibleIS6_S2_EE5valueEvE4typeE, symObjAddr: 0xEB8, symBinAddr: 0x100004F44, symSize: 0x3C }
  - { offsetInCU: 0xDACE, offset: 0x2012F, size: 0x8, addend: 0x0, symName: __ZNSt3__114basic_ofstreamIcNS_11char_traitsIcEEEC1EPKcj, symObjAddr: 0xEF4, symBinAddr: 0x100004F80, symSize: 0x16C }
  - { offsetInCU: 0xDB16, offset: 0x20177, size: 0x8, addend: 0x0, symName: __ZNSt3__114basic_ofstreamIcNS_11char_traitsIcEEE5closeEv, symObjAddr: 0x112C, symBinAddr: 0x1000050EC, symSize: 0x58 }
  - { offsetInCU: 0xDB42, offset: 0x201A3, size: 0x8, addend: 0x0, symName: __ZNSt3__114basic_ofstreamIcNS_11char_traitsIcEEED1Ev, symObjAddr: 0x1184, symBinAddr: 0x100005144, symSize: 0x40 }
  - { offsetInCU: 0xDB6E, offset: 0x201CF, size: 0x8, addend: 0x0, symName: __ZNSt3__16vectorIiNS_9allocatorIiEEED1B8ue170006Ev, symObjAddr: 0x11C4, symBinAddr: 0x100005184, symSize: 0x2C }
  - { offsetInCU: 0xDB96, offset: 0x201F7, size: 0x8, addend: 0x0, symName: __ZN3MapD1Ev, symObjAddr: 0x11F0, symBinAddr: 0x1000051B0, symSize: 0x2C }
  - { offsetInCU: 0xDBC1, offset: 0x20222, size: 0x8, addend: 0x0, symName: _main, symObjAddr: 0x121C, symBinAddr: 0x1000051DC, symSize: 0x2C }
  - { offsetInCU: 0xDBDB, offset: 0x2023C, size: 0x8, addend: 0x0, symName: __ZN3MapC2EiiNSt3__14pairIiiEES2_, symObjAddr: 0x1248, symBinAddr: 0x100005208, symSize: 0xDC }
  - { offsetInCU: 0xDC3B, offset: 0x2029C, size: 0x8, addend: 0x0, symName: __ZNSt3__16vectorINS0_I4NodeNS_9allocatorIS1_EEEENS2_IS4_EEEC1B8ue170006Ev, symObjAddr: 0x1324, symBinAddr: 0x1000052E4, symSize: 0x2C }
  - { offsetInCU: 0xDC62, offset: 0x202C3, size: 0x8, addend: 0x0, symName: __ZNSt3__16vectorINS0_I4NodeNS_9allocatorIS1_EEEENS2_IS4_EEE6resizeEmRKS4_, symObjAddr: 0x1350, symBinAddr: 0x100005310, symSize: 0xA4 }
  - { offsetInCU: 0xDCB6, offset: 0x20317, size: 0x8, addend: 0x0, symName: __ZNSt3__16vectorI4NodeNS_9allocatorIS1_EEEC1Em, symObjAddr: 0x13F4, symBinAddr: 0x1000053B4, symSize: 0x34 }
  - { offsetInCU: 0xDCF0, offset: 0x20351, size: 0x8, addend: 0x0, symName: __ZNSt3__16vectorI4NodeNS_9allocatorIS1_EEED1B8ue170006Ev, symObjAddr: 0x1428, symBinAddr: 0x1000053E8, symSize: 0x2C }
  - { offsetInCU: 0xDD18, offset: 0x20379, size: 0x8, addend: 0x0, symName: __ZNSt3__16vectorINS0_I4NodeNS_9allocatorIS1_EEEENS2_IS4_EEED1B8ue170006Ev, symObjAddr: 0x1454, symBinAddr: 0x100005414, symSize: 0x2C }
  - { offsetInCU: 0xDD40, offset: 0x203A1, size: 0x8, addend: 0x0, symName: __ZNSt3__16vectorINS0_I4NodeNS_9allocatorIS1_EEEENS2_IS4_EEEC2B8ue170006Ev, symObjAddr: 0x1480, symBinAddr: 0x100005440, symSize: 0x4C }
  - { offsetInCU: 0xDD72, offset: 0x203D3, size: 0x8, addend: 0x0, symName: __ZNSt3__117__compressed_pairIPNS_6vectorI4NodeNS_9allocatorIS2_EEEENS3_IS5_EEEC1B8ue170006IDnNS_18__default_init_tagEEEOT_OT0_, symObjAddr: 0x14CC, symBinAddr: 0x10000548C, symSize: 0x3C }
  - { offsetInCU: 0xDDC8, offset: 0x20429, size: 0x8, addend: 0x0, symName: __ZNSt3__117__compressed_pairIPNS_6vectorI4NodeNS_9allocatorIS2_EEEENS3_IS5_EEEC2B8ue170006IDnNS_18__default_init_tagEEEOT_OT0_, symObjAddr: 0x1514, symBinAddr: 0x1000054C8, symSize: 0x40 }
  - { offsetInCU: 0xDE1E, offset: 0x2047F, size: 0x8, addend: 0x0, symName: __ZNSt3__122__compressed_pair_elemIPNS_6vectorI4NodeNS_9allocatorIS2_EEEELi0ELb0EEC2B8ue170006IDnvEEOT_, symObjAddr: 0x1554, symBinAddr: 0x100005508, symSize: 0x1C }
  - { offsetInCU: 0xDE5E, offset: 0x204BF, size: 0x8, addend: 0x0, symName: __ZNSt3__122__compressed_pair_elemINS_9allocatorINS_6vectorI4NodeNS1_IS3_EEEEEELi1ELb1EEC2B8ue170006ENS_18__default_init_tagE, symObjAddr: 0x1570, symBinAddr: 0x100005524, symSize: 0x2C }
  - { offsetInCU: 0xDE90, offset: 0x204F1, size: 0x8, addend: 0x0, symName: __ZNSt3__19allocatorINS_6vectorI4NodeNS0_IS2_EEEEEC2B8ue170006Ev, symObjAddr: 0x159C, symBinAddr: 0x100005550, symSize: 0x2C }
  - { offsetInCU: 0xDEB8, offset: 0x20519, size: 0x8, addend: 0x0, symName: __ZNSt3__116__non_trivial_ifILb1ENS_9allocatorINS_6vectorI4NodeNS1_IS3_EEEEEEEC2B8ue170006Ev, symObjAddr: 0x15C8, symBinAddr: 0x10000557C, symSize: 0x14 }
  - { offsetInCU: 0xDEDF, offset: 0x20540, size: 0x8, addend: 0x0, symName: __ZNSt3__16vectorINS0_I4NodeNS_9allocatorIS1_EEEENS2_IS4_EEE8__appendEmRKS4_, symObjAddr: 0x1604, symBinAddr: 0x100005590, symSize: 0x114 }
  - { offsetInCU: 0xDF48, offset: 0x205A9, size: 0x8, addend: 0x0, symName: __ZNSt3__16vectorINS0_I4NodeNS_9allocatorIS1_EEEENS2_IS4_EEE17__destruct_at_endB8ue170006EPS4_, symObjAddr: 0x1718, symBinAddr: 0x1000056A4, symSize: 0x4C }
  - { offsetInCU: 0xDF8A, offset: 0x205EB, size: 0x8, addend: 0x0, symName: __ZNSt3__16vectorINS0_I4NodeNS_9allocatorIS1_EEEENS2_IS4_EEE9__end_capB8ue170006Ev, symObjAddr: 0x1764, symBinAddr: 0x1000056F0, symSize: 0x28 }
  - { offsetInCU: 0xDFAD, offset: 0x2060E, size: 0x8, addend: 0x0, symName: __ZNSt3__16vectorINS0_I4NodeNS_9allocatorIS1_EEEENS2_IS4_EEE18__construct_at_endEmRKS4_, symObjAddr: 0x178C, symBinAddr: 0x100005718, symSize: 0xD0 }
  - { offsetInCU: 0xE02E, offset: 0x2068F, size: 0x8, addend: 0x0, symName: __ZNSt3__16vectorINS0_I4NodeNS_9allocatorIS1_EEEENS2_IS4_EEE7__allocB8ue170006Ev, symObjAddr: 0x185C, symBinAddr: 0x1000057E8, symSize: 0x28 }
  - { offsetInCU: 0xE051, offset: 0x206B2, size: 0x8, addend: 0x0, symName: __ZNKSt3__16vectorINS0_I4NodeNS_9allocatorIS1_EEEENS2_IS4_EEE11__recommendB8ue170006Em, symObjAddr: 0x1884, symBinAddr: 0x100005810, symSize: 0xB4 }
  - { offsetInCU: 0xE0A5, offset: 0x20706, size: 0x8, addend: 0x0, symName: __ZNSt3__114__split_bufferINS_6vectorI4NodeNS_9allocatorIS2_EEEERNS3_IS5_EEEC1EmmS7_, symObjAddr: 0x1938, symBinAddr: 0x1000058C4, symSize: 0x44 }
  - { offsetInCU: 0xE0F9, offset: 0x2075A, size: 0x8, addend: 0x0, symName: __ZNSt3__114__split_bufferINS_6vectorI4NodeNS_9allocatorIS2_EEEERNS3_IS5_EEE18__construct_at_endEmRKS5_, symObjAddr: 0x197C, symBinAddr: 0x100005908, symSize: 0xBC }
  - { offsetInCU: 0xE14B, offset: 0x207AC, size: 0x8, addend: 0x0, symName: __ZNSt3__114__split_bufferINS_6vectorI4NodeNS_9allocatorIS2_EEEERNS3_IS5_EEED1Ev, symObjAddr: 0x1B48, symBinAddr: 0x100005AD4, symSize: 0x2C }
  - { offsetInCU: 0xE176, offset: 0x207D7, size: 0x8, addend: 0x0, symName: __ZNSt3__117__compressed_pairIPNS_6vectorI4NodeNS_9allocatorIS2_EEEENS3_IS5_EEE5firstB8ue170006Ev, symObjAddr: 0x1B74, symBinAddr: 0x100005B00, symSize: 0x24 }
  - { offsetInCU: 0xE19A, offset: 0x207FB, size: 0x8, addend: 0x0, symName: __ZNSt3__122__compressed_pair_elemIPNS_6vectorI4NodeNS_9allocatorIS2_EEEELi0ELb0EE5__getB8ue170006Ev, symObjAddr: 0x1B98, symBinAddr: 0x100005B24, symSize: 0x14 }
  - { offsetInCU: 0xE1D7, offset: 0x20838, size: 0x8, addend: 0x0, symName: __ZNSt3__16vectorINS0_I4NodeNS_9allocatorIS1_EEEENS2_IS4_EEE21_ConstructTransactionC1B8ue170006ERS6_m, symObjAddr: 0x1BAC, symBinAddr: 0x100005B38, symSize: 0x3C }
  - { offsetInCU: 0xE21D, offset: 0x2087E, size: 0x8, addend: 0x0, symName: __ZNSt3__116allocator_traitsINS_9allocatorINS_6vectorI4NodeNS1_IS3_EEEEEEE9constructB8ue170006IS5_JRKS5_EvEEvRS6_PT_DpOT0_, symObjAddr: 0x1BE8, symBinAddr: 0x100005B74, symSize: 0x34 }
  - { offsetInCU: 0xE275, offset: 0x208D6, size: 0x8, addend: 0x0, symName: __ZNSt3__16vectorINS0_I4NodeNS_9allocatorIS1_EEEENS2_IS4_EEE21_ConstructTransactionD1B8ue170006Ev, symObjAddr: 0x1C30, symBinAddr: 0x100005BBC, symSize: 0x2C }
  - { offsetInCU: 0xE29D, offset: 0x208FE, size: 0x8, addend: 0x0, symName: __ZNSt3__16vectorINS0_I4NodeNS_9allocatorIS1_EEEENS2_IS4_EEE21_ConstructTransactionC2B8ue170006ERS6_m, symObjAddr: 0x1C5C, symBinAddr: 0x100005BE8, symSize: 0x4C }
  - { offsetInCU: 0xE2E3, offset: 0x20944, size: 0x8, addend: 0x0, symName: __ZNSt3__19allocatorINS_6vectorI4NodeNS0_IS2_EEEEE9constructB8ue170006IS4_JRKS4_EEEvPT_DpOT0_, symObjAddr: 0x1CA8, symBinAddr: 0x100005C34, symSize: 0x30 }
  - { offsetInCU: 0xE339, offset: 0x2099A, size: 0x8, addend: 0x0, symName: __ZNSt3__16vectorI4NodeNS_9allocatorIS1_EEEC1ERKS4_, symObjAddr: 0x1CD8, symBinAddr: 0x100005C64, symSize: 0x34 }
  - { offsetInCU: 0xE373, offset: 0x209D4, size: 0x8, addend: 0x0, symName: __ZNSt3__16vectorI4NodeNS_9allocatorIS1_EEEC2ERKS4_, symObjAddr: 0x1D0C, symBinAddr: 0x100005C98, symSize: 0x94 }
  - { offsetInCU: 0xE3B7, offset: 0x20A18, size: 0x8, addend: 0x0, symName: __ZNSt3__116allocator_traitsINS_9allocatorI4NodeEEE37select_on_container_copy_constructionB8ue170006IS3_vvEES3_RKS3_, symObjAddr: 0x1DA0, symBinAddr: 0x100005D2C, symSize: 0x10 }
  - { offsetInCU: 0xE3E5, offset: 0x20A46, size: 0x8, addend: 0x0, symName: __ZNKSt3__16vectorI4NodeNS_9allocatorIS1_EEE7__allocB8ue170006Ev, symObjAddr: 0x1DB0, symBinAddr: 0x100005D3C, symSize: 0x28 }
  - { offsetInCU: 0xE40E, offset: 0x20A6F, size: 0x8, addend: 0x0, symName: __ZNSt3__117__compressed_pairIP4NodeNS_9allocatorIS1_EEEC1B8ue170006IDnS4_EEOT_OT0_, symObjAddr: 0x1DD8, symBinAddr: 0x100005D64, symSize: 0x3C }
  - { offsetInCU: 0xE464, offset: 0x20AC5, size: 0x8, addend: 0x0, symName: __ZNSt3__16vectorI4NodeNS_9allocatorIS1_EEE16__init_with_sizeB8ue170006IPS1_S6_EEvT_T0_m, symObjAddr: 0x1E14, symBinAddr: 0x100005DA0, symSize: 0xB8 }
  - { offsetInCU: 0xE4D6, offset: 0x20B37, size: 0x8, addend: 0x0, symName: __ZNKSt3__117__compressed_pairIP4NodeNS_9allocatorIS1_EEE6secondB8ue170006Ev, symObjAddr: 0x1EF4, symBinAddr: 0x100005E58, symSize: 0x24 }
  - { offsetInCU: 0xE4FA, offset: 0x20B5B, size: 0x8, addend: 0x0, symName: __ZNKSt3__122__compressed_pair_elemINS_9allocatorI4NodeEELi1ELb1EE5__getB8ue170006Ev, symObjAddr: 0x1F18, symBinAddr: 0x100005E7C, symSize: 0x14 }
  - { offsetInCU: 0xE51E, offset: 0x20B7F, size: 0x8, addend: 0x0, symName: __ZNSt3__117__compressed_pairIP4NodeNS_9allocatorIS1_EEEC2B8ue170006IDnS4_EEOT_OT0_, symObjAddr: 0x1F2C, symBinAddr: 0x100005E90, symSize: 0x44 }
  - { offsetInCU: 0xE574, offset: 0x20BD5, size: 0x8, addend: 0x0, symName: __ZNSt3__122__compressed_pair_elemIP4NodeLi0ELb0EEC2B8ue170006IDnvEEOT_, symObjAddr: 0x1F70, symBinAddr: 0x100005ED4, symSize: 0x1C }
  - { offsetInCU: 0xE5B4, offset: 0x20C15, size: 0x8, addend: 0x0, symName: __ZNSt3__122__compressed_pair_elemINS_9allocatorI4NodeEELi1ELb1EEC2B8ue170006IS3_vEEOT_, symObjAddr: 0x1F8C, symBinAddr: 0x100005EF0, symSize: 0x18 }
  - { offsetInCU: 0xE5F4, offset: 0x20C55, size: 0x8, addend: 0x0, symName: __ZNSt3__16vectorI4NodeNS_9allocatorIS1_EEE16__destroy_vectorC1B8ue170006ERS4_, symObjAddr: 0x1FE4, symBinAddr: 0x100005F48, symSize: 0x34 }
  - { offsetInCU: 0xE62B, offset: 0x20C8C, size: 0x8, addend: 0x0, symName: __ZNSt3__16vectorI4NodeNS_9allocatorIS1_EEE11__vallocateB8ue170006Em, symObjAddr: 0x2018, symBinAddr: 0x100005F7C, symSize: 0xAC }
  - { offsetInCU: 0xE66C, offset: 0x20CCD, size: 0x8, addend: 0x0, symName: __ZNSt3__16vectorI4NodeNS_9allocatorIS1_EEE18__construct_at_endIPS1_S6_EEvT_T0_m, symObjAddr: 0x20C4, symBinAddr: 0x100006028, symSize: 0x8C }
  - { offsetInCU: 0xE6E1, offset: 0x20D42, size: 0x8, addend: 0x0, symName: __ZNSt3__128__exception_guard_exceptionsINS_6vectorI4NodeNS_9allocatorIS2_EEE16__destroy_vectorEE10__completeB8ue170006Ev, symObjAddr: 0x2150, symBinAddr: 0x1000060B4, symSize: 0x1C }
  - { offsetInCU: 0xE705, offset: 0x20D66, size: 0x8, addend: 0x0, symName: __ZNSt3__128__exception_guard_exceptionsINS_6vectorI4NodeNS_9allocatorIS2_EEE16__destroy_vectorEED1B8ue170006Ev, symObjAddr: 0x216C, symBinAddr: 0x1000060D0, symSize: 0x2C }
  - { offsetInCU: 0xE72D, offset: 0x20D8E, size: 0x8, addend: 0x0, symName: __ZNSt3__128__exception_guard_exceptionsINS_6vectorI4NodeNS_9allocatorIS2_EEE16__destroy_vectorEEC1B8ue170006ES6_, symObjAddr: 0x2198, symBinAddr: 0x1000060FC, symSize: 0x34 }
  - { offsetInCU: 0xE763, offset: 0x20DC4, size: 0x8, addend: 0x0, symName: __ZNSt3__128__exception_guard_exceptionsINS_6vectorI4NodeNS_9allocatorIS2_EEE16__destroy_vectorEEC2B8ue170006ES6_, symObjAddr: 0x21CC, symBinAddr: 0x100006130, symSize: 0x24 }
  - { offsetInCU: 0xE799, offset: 0x20DFA, size: 0x8, addend: 0x0, symName: __ZNSt3__16vectorI4NodeNS_9allocatorIS1_EEE16__destroy_vectorC2B8ue170006ERS4_, symObjAddr: 0x21F0, symBinAddr: 0x100006154, symSize: 0x20 }
  - { offsetInCU: 0xE7CF, offset: 0x20E30, size: 0x8, addend: 0x0, symName: __ZNKSt3__16vectorI4NodeNS_9allocatorIS1_EEE8max_sizeEv, symObjAddr: 0x2210, symBinAddr: 0x100006174, symSize: 0x60 }
  - { offsetInCU: 0xE7F6, offset: 0x20E57, size: 0x8, addend: 0x0, symName: __ZNKSt3__16vectorI4NodeNS_9allocatorIS1_EEE20__throw_length_errorB8ue170006Ev, symObjAddr: 0x2270, symBinAddr: 0x1000061D4, symSize: 0x1C }
  - { offsetInCU: 0xE81A, offset: 0x20E7B, size: 0x8, addend: 0x0, symName: __ZNSt3__16vectorI4NodeNS_9allocatorIS1_EEE7__allocB8ue170006Ev, symObjAddr: 0x22CC, symBinAddr: 0x100006230, symSize: 0x28 }
  - { offsetInCU: 0xE83E, offset: 0x20E9F, size: 0x8, addend: 0x0, symName: __ZNSt3__16vectorI4NodeNS_9allocatorIS1_EEE9__end_capB8ue170006Ev, symObjAddr: 0x22F4, symBinAddr: 0x100006258, symSize: 0x28 }
  - { offsetInCU: 0xE862, offset: 0x20EC3, size: 0x8, addend: 0x0, symName: __ZNKSt3__16vectorI4NodeNS_9allocatorIS1_EEE14__annotate_newB8ue170006Em, symObjAddr: 0x231C, symBinAddr: 0x100006280, symSize: 0xAC }
  - { offsetInCU: 0xE895, offset: 0x20EF6, size: 0x8, addend: 0x0, symName: __ZNSt3__116allocator_traitsINS_9allocatorI4NodeEEE8max_sizeB8ue170006IS3_vEEmRKS3_, symObjAddr: 0x23F4, symBinAddr: 0x100006358, symSize: 0x24 }
  - { offsetInCU: 0xE8C2, offset: 0x20F23, size: 0x8, addend: 0x0, symName: __ZNSt3__114numeric_limitsIlE3maxB8ue170006Ev, symObjAddr: 0x2418, symBinAddr: 0x10000637C, symSize: 0x14 }
  - { offsetInCU: 0xE8EA, offset: 0x20F4B, size: 0x8, addend: 0x0, symName: __ZNKSt3__16__lessIvvEclB8ue170006ImmEEbRKT_RKT0_, symObjAddr: 0x2480, symBinAddr: 0x1000063E4, symSize: 0x34 }
  - { offsetInCU: 0xE93C, offset: 0x20F9D, size: 0x8, addend: 0x0, symName: __ZNKSt3__19allocatorI4NodeE8max_sizeB8ue170006Ev, symObjAddr: 0x24B4, symBinAddr: 0x100006418, symSize: 0x14 }
  - { offsetInCU: 0xE960, offset: 0x20FC1, size: 0x8, addend: 0x0, symName: __ZNSt3__123__libcpp_numeric_limitsIlLb1EE3maxB8ue170006Ev, symObjAddr: 0x24C8, symBinAddr: 0x10000642C, symSize: 0x8 }
  - { offsetInCU: 0xE973, offset: 0x20FD4, size: 0x8, addend: 0x0, symName: __ZNSt12length_errorC1B8ue170006EPKc, symObjAddr: 0x2534, symBinAddr: 0x100006498, symSize: 0x34 }
  - { offsetInCU: 0xE9A9, offset: 0x2100A, size: 0x8, addend: 0x0, symName: __ZNSt12length_errorC2B8ue170006EPKc, symObjAddr: 0x2568, symBinAddr: 0x1000064CC, symSize: 0x4C }
  - { offsetInCU: 0xE9DF, offset: 0x21040, size: 0x8, addend: 0x0, symName: __ZNSt3__19allocatorI4NodeE8allocateB8ue170006Em, symObjAddr: 0x25B4, symBinAddr: 0x100006518, symSize: 0x58 }
  - { offsetInCU: 0xEA11, offset: 0x21072, size: 0x8, addend: 0x0, symName: __ZNSt3__117__compressed_pairIP4NodeNS_9allocatorIS1_EEE6secondB8ue170006Ev, symObjAddr: 0x268C, symBinAddr: 0x1000065F0, symSize: 0x24 }
  - { offsetInCU: 0xEA35, offset: 0x21096, size: 0x8, addend: 0x0, symName: __ZNSt3__122__compressed_pair_elemINS_9allocatorI4NodeEELi1ELb1EE5__getB8ue170006Ev, symObjAddr: 0x26B0, symBinAddr: 0x100006614, symSize: 0x14 }
  - { offsetInCU: 0xEA59, offset: 0x210BA, size: 0x8, addend: 0x0, symName: __ZNSt3__117__compressed_pairIP4NodeNS_9allocatorIS1_EEE5firstB8ue170006Ev, symObjAddr: 0x26C4, symBinAddr: 0x100006628, symSize: 0x24 }
  - { offsetInCU: 0xEA7D, offset: 0x210DE, size: 0x8, addend: 0x0, symName: __ZNSt3__122__compressed_pair_elemIP4NodeLi0ELb0EE5__getB8ue170006Ev, symObjAddr: 0x26E8, symBinAddr: 0x10000664C, symSize: 0x14 }
  - { offsetInCU: 0xEAA1, offset: 0x21102, size: 0x8, addend: 0x0, symName: __ZNKSt3__16vectorI4NodeNS_9allocatorIS1_EEE31__annotate_contiguous_containerB8ue170006EPKvS6_S6_S6_, symObjAddr: 0x26FC, symBinAddr: 0x100006660, symSize: 0x20 }
  - { offsetInCU: 0xEAF5, offset: 0x21156, size: 0x8, addend: 0x0, symName: __ZNKSt3__16vectorI4NodeNS_9allocatorIS1_EEE4dataB8ue170006Ev, symObjAddr: 0x271C, symBinAddr: 0x100006680, symSize: 0x28 }
  - { offsetInCU: 0xEB19, offset: 0x2117A, size: 0x8, addend: 0x0, symName: __ZNKSt3__16vectorI4NodeNS_9allocatorIS1_EEE8capacityB8ue170006Ev, symObjAddr: 0x2744, symBinAddr: 0x1000066A8, symSize: 0x40 }
  - { offsetInCU: 0xEB3D, offset: 0x2119E, size: 0x8, addend: 0x0, symName: __ZNKSt3__16vectorI4NodeNS_9allocatorIS1_EEE9__end_capB8ue170006Ev, symObjAddr: 0x2798, symBinAddr: 0x1000066FC, symSize: 0x28 }
  - { offsetInCU: 0xEB61, offset: 0x211C2, size: 0x8, addend: 0x0, symName: __ZNKSt3__117__compressed_pairIP4NodeNS_9allocatorIS1_EEE5firstB8ue170006Ev, symObjAddr: 0x27C0, symBinAddr: 0x100006724, symSize: 0x24 }
  - { offsetInCU: 0xEB85, offset: 0x211E6, size: 0x8, addend: 0x0, symName: __ZNKSt3__122__compressed_pair_elemIP4NodeLi0ELb0EE5__getB8ue170006Ev, symObjAddr: 0x27E4, symBinAddr: 0x100006748, symSize: 0x14 }
  - { offsetInCU: 0xEBC2, offset: 0x21223, size: 0x8, addend: 0x0, symName: __ZNSt3__16vectorI4NodeNS_9allocatorIS1_EEE21_ConstructTransactionC1B8ue170006ERS4_m, symObjAddr: 0x27F8, symBinAddr: 0x10000675C, symSize: 0x3C }
  - { offsetInCU: 0xEC08, offset: 0x21269, size: 0x8, addend: 0x0, symName: __ZNSt3__16vectorI4NodeNS_9allocatorIS1_EEE21_ConstructTransactionD1B8ue170006Ev, symObjAddr: 0x28B4, symBinAddr: 0x100006818, symSize: 0x2C }
  - { offsetInCU: 0xEC30, offset: 0x21291, size: 0x8, addend: 0x0, symName: __ZNSt3__16vectorI4NodeNS_9allocatorIS1_EEE21_ConstructTransactionC2B8ue170006ERS4_m, symObjAddr: 0x28E0, symBinAddr: 0x100006844, symSize: 0x44 }
  - { offsetInCU: 0xEC94, offset: 0x212F5, size: 0x8, addend: 0x0, symName: __ZNSt3__14pairIP4NodeS2_EC1B8ue170006IS2_S2_LPv0EEEOT_OT0_, symObjAddr: 0x2A54, symBinAddr: 0x1000069B8, symSize: 0x3C }
  - { offsetInCU: 0xECF1, offset: 0x21352, size: 0x8, addend: 0x0, symName: __ZNSt3__14pairIP4NodeS2_EC2B8ue170006IS2_S2_LPv0EEEOT_OT0_, symObjAddr: 0x2A90, symBinAddr: 0x1000069F4, symSize: 0x34 }
  - { offsetInCU: 0xED58, offset: 0x213B9, size: 0x8, addend: 0x0, symName: __ZNKSt3__114__copy_trivialclB8ue170006I4NodeS2_Li0EEENS_4pairIPT_PT0_EES5_S5_S7_, symObjAddr: 0x2C40, symBinAddr: 0x100006BA4, symSize: 0x48 }
  - { offsetInCU: 0xEDBF, offset: 0x21420, size: 0x8, addend: 0x0, symName: __ZNSt3__14pairIP4NodeS2_EC1B8ue170006IRS2_S2_LPv0EEEOT_OT0_, symObjAddr: 0x2DD0, symBinAddr: 0x100006D34, symSize: 0x3C }
  - { offsetInCU: 0xEE1C, offset: 0x2147D, size: 0x8, addend: 0x0, symName: __ZNSt3__14pairIP4NodeS2_EC2B8ue170006IRS2_S2_LPv0EEEOT_OT0_, symObjAddr: 0x2E0C, symBinAddr: 0x100006D70, symSize: 0x34 }
  - { offsetInCU: 0xEE79, offset: 0x214DA, size: 0x8, addend: 0x0, symName: __ZNSt3__118__unwrap_iter_implIP4NodeLb1EE8__unwrapB8ue170006ES2_, symObjAddr: 0x2E40, symBinAddr: 0x100006DA4, symSize: 0x24 }
  - { offsetInCU: 0xEE9B, offset: 0x214FC, size: 0x8, addend: 0x0, symName: __ZNSt3__118__unwrap_iter_implIP4NodeLb1EE8__rewrapB8ue170006ES2_S2_, symObjAddr: 0x2E64, symBinAddr: 0x100006DC8, symSize: 0x50 }
  - { offsetInCU: 0xEECB, offset: 0x2152C, size: 0x8, addend: 0x0, symName: __ZNSt3__16vectorI4NodeNS_9allocatorIS1_EEE21_ConstructTransactionD2B8ue170006Ev, symObjAddr: 0x2EB4, symBinAddr: 0x100006E18, symSize: 0x20 }
  - { offsetInCU: 0xEEF3, offset: 0x21554, size: 0x8, addend: 0x0, symName: __ZNSt3__128__exception_guard_exceptionsINS_6vectorI4NodeNS_9allocatorIS2_EEE16__destroy_vectorEED2B8ue170006Ev, symObjAddr: 0x2ED4, symBinAddr: 0x100006E38, symSize: 0x50 }
  - { offsetInCU: 0xEF1B, offset: 0x2157C, size: 0x8, addend: 0x0, symName: __ZNSt3__16vectorI4NodeNS_9allocatorIS1_EEE16__destroy_vectorclB8ue170006Ev, symObjAddr: 0x2F24, symBinAddr: 0x100006E88, symSize: 0x90 }
  - { offsetInCU: 0xEF3F, offset: 0x215A0, size: 0x8, addend: 0x0, symName: __ZNSt3__16vectorI4NodeNS_9allocatorIS1_EEE7__clearB8ue170006Ev, symObjAddr: 0x2FB4, symBinAddr: 0x100006F18, symSize: 0x28 }
  - { offsetInCU: 0xEF63, offset: 0x215C4, size: 0x8, addend: 0x0, symName: __ZNKSt3__16vectorI4NodeNS_9allocatorIS1_EEE17__annotate_deleteB8ue170006Ev, symObjAddr: 0x2FDC, symBinAddr: 0x100006F40, symSize: 0xB8 }
  - { offsetInCU: 0xEF87, offset: 0x215E8, size: 0x8, addend: 0x0, symName: __ZNSt3__116allocator_traitsINS_9allocatorI4NodeEEE10deallocateB8ue170006ERS3_PS2_m, symObjAddr: 0x3094, symBinAddr: 0x100006FF8, symSize: 0x34 }
  - { offsetInCU: 0xEFC8, offset: 0x21629, size: 0x8, addend: 0x0, symName: __ZNSt3__16vectorI4NodeNS_9allocatorIS1_EEE22__base_destruct_at_endB8ue170006EPS1_, symObjAddr: 0x30C8, symBinAddr: 0x10000702C, symSize: 0x8C }
  - { offsetInCU: 0xF00A, offset: 0x2166B, size: 0x8, addend: 0x0, symName: __ZNSt3__116allocator_traitsINS_9allocatorI4NodeEEE7destroyB8ue170006IS2_vEEvRS3_PT_, symObjAddr: 0x3154, symBinAddr: 0x1000070B8, symSize: 0x2C }
  - { offsetInCU: 0xF046, offset: 0x216A7, size: 0x8, addend: 0x0, symName: __ZNSt3__19allocatorI4NodeE7destroyB8ue170006EPS1_, symObjAddr: 0x3180, symBinAddr: 0x1000070E4, symSize: 0x14 }
  - { offsetInCU: 0xF078, offset: 0x216D9, size: 0x8, addend: 0x0, symName: __ZNSt3__19allocatorI4NodeE10deallocateB8ue170006EPS1_m, symObjAddr: 0x3194, symBinAddr: 0x1000070F8, symSize: 0x40 }
  - { offsetInCU: 0xF0B8, offset: 0x21719, size: 0x8, addend: 0x0, symName: __ZNSt3__16vectorINS0_I4NodeNS_9allocatorIS1_EEEENS2_IS4_EEE21_ConstructTransactionD2B8ue170006Ev, symObjAddr: 0x3250, symBinAddr: 0x1000071B4, symSize: 0x20 }
  - { offsetInCU: 0xF0E0, offset: 0x21741, size: 0x8, addend: 0x0, symName: __ZNSt3__117__compressed_pairIPNS_6vectorI4NodeNS_9allocatorIS2_EEEENS3_IS5_EEE6secondB8ue170006Ev, symObjAddr: 0x3270, symBinAddr: 0x1000071D4, symSize: 0x24 }
  - { offsetInCU: 0xF104, offset: 0x21765, size: 0x8, addend: 0x0, symName: __ZNSt3__122__compressed_pair_elemINS_9allocatorINS_6vectorI4NodeNS1_IS3_EEEEEELi1ELb1EE5__getB8ue170006Ev, symObjAddr: 0x3294, symBinAddr: 0x1000071F8, symSize: 0x14 }
  - { offsetInCU: 0xF127, offset: 0x21788, size: 0x8, addend: 0x0, symName: __ZNKSt3__16vectorINS0_I4NodeNS_9allocatorIS1_EEEENS2_IS4_EEE8max_sizeEv, symObjAddr: 0x32A8, symBinAddr: 0x10000720C, symSize: 0x60 }
  - { offsetInCU: 0xF14E, offset: 0x217AF, size: 0x8, addend: 0x0, symName: __ZNKSt3__16vectorINS0_I4NodeNS_9allocatorIS1_EEEENS2_IS4_EEE20__throw_length_errorB8ue170006Ev, symObjAddr: 0x3308, symBinAddr: 0x10000726C, symSize: 0x1C }
  - { offsetInCU: 0xF172, offset: 0x217D3, size: 0x8, addend: 0x0, symName: __ZNKSt3__16vectorINS0_I4NodeNS_9allocatorIS1_EEEENS2_IS4_EEE8capacityB8ue170006Ev, symObjAddr: 0x3324, symBinAddr: 0x100007288, symSize: 0x40 }
  - { offsetInCU: 0xF1A0, offset: 0x21801, size: 0x8, addend: 0x0, symName: __ZNSt3__116allocator_traitsINS_9allocatorINS_6vectorI4NodeNS1_IS3_EEEEEEE8max_sizeB8ue170006IS6_vEEmRKS6_, symObjAddr: 0x3390, symBinAddr: 0x1000072F4, symSize: 0x24 }
  - { offsetInCU: 0xF1CD, offset: 0x2182E, size: 0x8, addend: 0x0, symName: __ZNKSt3__16vectorINS0_I4NodeNS_9allocatorIS1_EEEENS2_IS4_EEE7__allocB8ue170006Ev, symObjAddr: 0x33B4, symBinAddr: 0x100007318, symSize: 0x28 }
  - { offsetInCU: 0xF1F1, offset: 0x21852, size: 0x8, addend: 0x0, symName: __ZNKSt3__19allocatorINS_6vectorI4NodeNS0_IS2_EEEEE8max_sizeB8ue170006Ev, symObjAddr: 0x33DC, symBinAddr: 0x100007340, symSize: 0x18 }
  - { offsetInCU: 0xF215, offset: 0x21876, size: 0x8, addend: 0x0, symName: __ZNKSt3__117__compressed_pairIPNS_6vectorI4NodeNS_9allocatorIS2_EEEENS3_IS5_EEE6secondB8ue170006Ev, symObjAddr: 0x33F4, symBinAddr: 0x100007358, symSize: 0x24 }
  - { offsetInCU: 0xF239, offset: 0x2189A, size: 0x8, addend: 0x0, symName: __ZNKSt3__122__compressed_pair_elemINS_9allocatorINS_6vectorI4NodeNS1_IS3_EEEEEELi1ELb1EE5__getB8ue170006Ev, symObjAddr: 0x3418, symBinAddr: 0x10000737C, symSize: 0x14 }
  - { offsetInCU: 0xF25D, offset: 0x218BE, size: 0x8, addend: 0x0, symName: __ZNKSt3__16vectorINS0_I4NodeNS_9allocatorIS1_EEEENS2_IS4_EEE9__end_capB8ue170006Ev, symObjAddr: 0x342C, symBinAddr: 0x100007390, symSize: 0x28 }
  - { offsetInCU: 0xF281, offset: 0x218E2, size: 0x8, addend: 0x0, symName: __ZNKSt3__117__compressed_pairIPNS_6vectorI4NodeNS_9allocatorIS2_EEEENS3_IS5_EEE5firstB8ue170006Ev, symObjAddr: 0x3454, symBinAddr: 0x1000073B8, symSize: 0x24 }
  - { offsetInCU: 0xF2A5, offset: 0x21906, size: 0x8, addend: 0x0, symName: __ZNKSt3__122__compressed_pair_elemIPNS_6vectorI4NodeNS_9allocatorIS2_EEEELi0ELb0EE5__getB8ue170006Ev, symObjAddr: 0x3478, symBinAddr: 0x1000073DC, symSize: 0x14 }
  - { offsetInCU: 0xF2C9, offset: 0x2192A, size: 0x8, addend: 0x0, symName: __ZNSt3__114__split_bufferINS_6vectorI4NodeNS_9allocatorIS2_EEEERNS3_IS5_EEEC2EmmS7_, symObjAddr: 0x34E0, symBinAddr: 0x100007444, symSize: 0xE0 }
  - { offsetInCU: 0xF33C, offset: 0x2199D, size: 0x8, addend: 0x0, symName: __ZNSt3__117__compressed_pairIPNS_6vectorI4NodeNS_9allocatorIS2_EEEERNS3_IS5_EEEC1B8ue170006IDnS8_EEOT_OT0_, symObjAddr: 0x35C0, symBinAddr: 0x100007524, symSize: 0x3C }
  - { offsetInCU: 0xF392, offset: 0x219F3, size: 0x8, addend: 0x0, symName: __ZNSt3__114__split_bufferINS_6vectorI4NodeNS_9allocatorIS2_EEEERNS3_IS5_EEE7__allocB8ue170006Ev, symObjAddr: 0x363C, symBinAddr: 0x1000075A0, symSize: 0x28 }
  - { offsetInCU: 0xF3B6, offset: 0x21A17, size: 0x8, addend: 0x0, symName: __ZNSt3__114__split_bufferINS_6vectorI4NodeNS_9allocatorIS2_EEEERNS3_IS5_EEE9__end_capB8ue170006Ev, symObjAddr: 0x3664, symBinAddr: 0x1000075C8, symSize: 0x28 }
  - { offsetInCU: 0xF3DA, offset: 0x21A3B, size: 0x8, addend: 0x0, symName: __ZNSt3__117__compressed_pairIPNS_6vectorI4NodeNS_9allocatorIS2_EEEERNS3_IS5_EEEC2B8ue170006IDnS8_EEOT_OT0_, symObjAddr: 0x368C, symBinAddr: 0x1000075F0, symSize: 0x48 }
  - { offsetInCU: 0xF430, offset: 0x21A91, size: 0x8, addend: 0x0, symName: __ZNSt3__122__compressed_pair_elemIRNS_9allocatorINS_6vectorI4NodeNS1_IS3_EEEEEELi1ELb0EEC2B8ue170006IS7_vEEOT_, symObjAddr: 0x36D4, symBinAddr: 0x100007638, symSize: 0x20 }
  - { offsetInCU: 0xF470, offset: 0x21AD1, size: 0x8, addend: 0x0, symName: __ZNSt3__19allocatorINS_6vectorI4NodeNS0_IS2_EEEEE8allocateB8ue170006Em, symObjAddr: 0x36F4, symBinAddr: 0x100007658, symSize: 0x5C }
  - { offsetInCU: 0xF4A2, offset: 0x21B03, size: 0x8, addend: 0x0, symName: __ZNSt3__117__compressed_pairIPNS_6vectorI4NodeNS_9allocatorIS2_EEEERNS3_IS5_EEE6secondB8ue170006Ev, symObjAddr: 0x3750, symBinAddr: 0x1000076B4, symSize: 0x28 }
  - { offsetInCU: 0xF4C6, offset: 0x21B27, size: 0x8, addend: 0x0, symName: __ZNSt3__122__compressed_pair_elemIRNS_9allocatorINS_6vectorI4NodeNS1_IS3_EEEEEELi1ELb0EE5__getB8ue170006Ev, symObjAddr: 0x3778, symBinAddr: 0x1000076DC, symSize: 0x18 }
  - { offsetInCU: 0xF4EA, offset: 0x21B4B, size: 0x8, addend: 0x0, symName: __ZNSt3__117__compressed_pairIPNS_6vectorI4NodeNS_9allocatorIS2_EEEERNS3_IS5_EEE5firstB8ue170006Ev, symObjAddr: 0x3790, symBinAddr: 0x1000076F4, symSize: 0x24 }
  - { offsetInCU: 0xF518, offset: 0x21B79, size: 0x8, addend: 0x0, symName: __ZNSt3__114__split_bufferINS_6vectorI4NodeNS_9allocatorIS2_EEEERNS3_IS5_EEE21_ConstructTransactionC1B8ue170006EPPS5_m, symObjAddr: 0x37B4, symBinAddr: 0x100007718, symSize: 0x3C }
  - { offsetInCU: 0xF55C, offset: 0x21BBD, size: 0x8, addend: 0x0, symName: __ZNSt3__114__split_bufferINS_6vectorI4NodeNS_9allocatorIS2_EEEERNS3_IS5_EEE21_ConstructTransactionD1B8ue170006Ev, symObjAddr: 0x37F0, symBinAddr: 0x100007754, symSize: 0x2C }
  - { offsetInCU: 0xF584, offset: 0x21BE5, size: 0x8, addend: 0x0, symName: __ZNSt3__114__split_bufferINS_6vectorI4NodeNS_9allocatorIS2_EEEERNS3_IS5_EEE21_ConstructTransactionC2B8ue170006EPPS5_m, symObjAddr: 0x381C, symBinAddr: 0x100007780, symSize: 0x4C }
  - { offsetInCU: 0xF5C8, offset: 0x21C29, size: 0x8, addend: 0x0, symName: __ZNSt3__114__split_bufferINS_6vectorI4NodeNS_9allocatorIS2_EEEERNS3_IS5_EEE21_ConstructTransactionD2B8ue170006Ev, symObjAddr: 0x3868, symBinAddr: 0x1000077CC, symSize: 0x20 }
  - { offsetInCU: 0xF5F0, offset: 0x21C51, size: 0x8, addend: 0x0, symName: __ZNKSt3__16vectorINS0_I4NodeNS_9allocatorIS1_EEEENS2_IS4_EEE17__annotate_deleteB8ue170006Ev, symObjAddr: 0x3888, symBinAddr: 0x1000077EC, symSize: 0xD4 }
  - { offsetInCU: 0xF614, offset: 0x21C75, size: 0x8, addend: 0x0, symName: __ZNSt3__116reverse_iteratorIPNS_6vectorI4NodeNS_9allocatorIS2_EEEEEC1B8ue170006ES6_, symObjAddr: 0x3A88, symBinAddr: 0x1000079EC, symSize: 0x34 }
  - { offsetInCU: 0xF64A, offset: 0x21CAB, size: 0x8, addend: 0x0, symName: __ZNKSt3__116reverse_iteratorIPNS_6vectorI4NodeNS_9allocatorIS2_EEEEE4baseB8ue170006Ev, symObjAddr: 0x3ABC, symBinAddr: 0x100007A20, symSize: 0x18 }
  - { offsetInCU: 0xF66E, offset: 0x21CCF, size: 0x8, addend: 0x0, symName: __ZNKSt3__16vectorINS0_I4NodeNS_9allocatorIS1_EEEENS2_IS4_EEE14__annotate_newB8ue170006Em, symObjAddr: 0x3B10, symBinAddr: 0x100007A74, symSize: 0xC8 }
  - { offsetInCU: 0xF6A1, offset: 0x21D02, size: 0x8, addend: 0x0, symName: __ZNKSt3__16vectorINS0_I4NodeNS_9allocatorIS1_EEEENS2_IS4_EEE31__annotate_contiguous_containerB8ue170006EPKvS8_S8_S8_, symObjAddr: 0x3BD8, symBinAddr: 0x100007B3C, symSize: 0x20 }
  - { offsetInCU: 0xF6F5, offset: 0x21D56, size: 0x8, addend: 0x0, symName: __ZNKSt3__16vectorINS0_I4NodeNS_9allocatorIS1_EEEENS2_IS4_EEE4dataB8ue170006Ev, symObjAddr: 0x3BF8, symBinAddr: 0x100007B5C, symSize: 0x28 }
  - { offsetInCU: 0xF719, offset: 0x21D7A, size: 0x8, addend: 0x0, symName: __ZNSt3__129_AllocatorDestroyRangeReverseINS_9allocatorINS_6vectorI4NodeNS1_IS3_EEEEEENS_16reverse_iteratorIPS5_EEEC1B8ue170006ERS6_RS9_SC_, symObjAddr: 0x3C6C, symBinAddr: 0x100007BD0, symSize: 0x44 }
  - { offsetInCU: 0xF76E, offset: 0x21DCF, size: 0x8, addend: 0x0, symName: __ZNSt3__116allocator_traitsINS_9allocatorINS_6vectorI4NodeNS1_IS3_EEEEEEE9constructB8ue170006IS5_JS5_EvEEvRS6_PT_DpOT0_, symObjAddr: 0x3CF8, symBinAddr: 0x100007C5C, symSize: 0x34 }
  - { offsetInCU: 0xF7C6, offset: 0x21E27, size: 0x8, addend: 0x0, symName: __ZNKSt3__116reverse_iteratorIPNS_6vectorI4NodeNS_9allocatorIS2_EEEEEdeB8ue170006Ev, symObjAddr: 0x3D50, symBinAddr: 0x100007CB4, symSize: 0x28 }
  - { offsetInCU: 0xF7F9, offset: 0x21E5A, size: 0x8, addend: 0x0, symName: __ZNSt3__116reverse_iteratorIPNS_6vectorI4NodeNS_9allocatorIS2_EEEEEppB8ue170006Ev, symObjAddr: 0x3D78, symBinAddr: 0x100007CDC, symSize: 0x20 }
  - { offsetInCU: 0xF81D, offset: 0x21E7E, size: 0x8, addend: 0x0, symName: __ZNSt3__128__exception_guard_exceptionsINS_29_AllocatorDestroyRangeReverseINS_9allocatorINS_6vectorI4NodeNS2_IS4_EEEEEENS_16reverse_iteratorIPS6_EEEEE10__completeB8ue170006Ev, symObjAddr: 0x3D98, symBinAddr: 0x100007CFC, symSize: 0x1C }
  - { offsetInCU: 0xF841, offset: 0x21EA2, size: 0x8, addend: 0x0, symName: __ZNSt3__128__exception_guard_exceptionsINS_29_AllocatorDestroyRangeReverseINS_9allocatorINS_6vectorI4NodeNS2_IS4_EEEEEENS_16reverse_iteratorIPS6_EEEEED1B8ue170006Ev, symObjAddr: 0x3DB4, symBinAddr: 0x100007D18, symSize: 0x2C }
  - { offsetInCU: 0xF869, offset: 0x21ECA, size: 0x8, addend: 0x0, symName: __ZNSt3__128__exception_guard_exceptionsINS_29_AllocatorDestroyRangeReverseINS_9allocatorINS_6vectorI4NodeNS2_IS4_EEEEEENS_16reverse_iteratorIPS6_EEEEEC1B8ue170006ESB_, symObjAddr: 0x3DE0, symBinAddr: 0x100007D44, symSize: 0x34 }
  - { offsetInCU: 0xF8A0, offset: 0x21F01, size: 0x8, addend: 0x0, symName: __ZNSt3__128__exception_guard_exceptionsINS_29_AllocatorDestroyRangeReverseINS_9allocatorINS_6vectorI4NodeNS2_IS4_EEEEEENS_16reverse_iteratorIPS6_EEEEEC2B8ue170006ESB_, symObjAddr: 0x3E14, symBinAddr: 0x100007D78, symSize: 0x30 }
  - { offsetInCU: 0xF8D7, offset: 0x21F38, size: 0x8, addend: 0x0, symName: __ZNSt3__129_AllocatorDestroyRangeReverseINS_9allocatorINS_6vectorI4NodeNS1_IS3_EEEEEENS_16reverse_iteratorIPS5_EEEC2B8ue170006ERS6_RS9_SC_, symObjAddr: 0x3E44, symBinAddr: 0x100007DA8, symSize: 0x38 }
  - { offsetInCU: 0xF92C, offset: 0x21F8D, size: 0x8, addend: 0x0, symName: __ZNSt3__19allocatorINS_6vectorI4NodeNS0_IS2_EEEEE9constructB8ue170006IS4_JS4_EEEvPT_DpOT0_, symObjAddr: 0x3E7C, symBinAddr: 0x100007DE0, symSize: 0x30 }
  - { offsetInCU: 0xF982, offset: 0x21FE3, size: 0x8, addend: 0x0, symName: __ZNSt3__16vectorI4NodeNS_9allocatorIS1_EEEC1B8ue170006EOS4_, symObjAddr: 0x3EAC, symBinAddr: 0x100007E10, symSize: 0x34 }
  - { offsetInCU: 0xF9BC, offset: 0x2201D, size: 0x8, addend: 0x0, symName: __ZNSt3__16vectorI4NodeNS_9allocatorIS1_EEEC2B8ue170006EOS4_, symObjAddr: 0x3EE0, symBinAddr: 0x100007E44, symSize: 0xC4 }
  - { offsetInCU: 0xF9FB, offset: 0x2205C, size: 0x8, addend: 0x0, symName: __ZNSt3__119__to_address_helperINS_16reverse_iteratorIPNS_6vectorI4NodeNS_9allocatorIS3_EEEEEEvE6__callB8ue170006ERKS8_, symObjAddr: 0x3FA4, symBinAddr: 0x100007F08, symSize: 0x38 }
  - { offsetInCU: 0xFA1D, offset: 0x2207E, size: 0x8, addend: 0x0, symName: __ZNKSt3__116reverse_iteratorIPNS_6vectorI4NodeNS_9allocatorIS2_EEEEEptB8ue170006Ev, symObjAddr: 0x3FDC, symBinAddr: 0x100007F40, symSize: 0x24 }
  - { offsetInCU: 0xFA41, offset: 0x220A2, size: 0x8, addend: 0x0, symName: __ZNSt3__128__exception_guard_exceptionsINS_29_AllocatorDestroyRangeReverseINS_9allocatorINS_6vectorI4NodeNS2_IS4_EEEEEENS_16reverse_iteratorIPS6_EEEEED2B8ue170006Ev, symObjAddr: 0x4000, symBinAddr: 0x100007F64, symSize: 0x50 }
  - { offsetInCU: 0xFA69, offset: 0x220CA, size: 0x8, addend: 0x0, symName: __ZNKSt3__129_AllocatorDestroyRangeReverseINS_9allocatorINS_6vectorI4NodeNS1_IS3_EEEEEENS_16reverse_iteratorIPS5_EEEclB8ue170006Ev, symObjAddr: 0x4050, symBinAddr: 0x100007FB4, symSize: 0xB4 }
  - { offsetInCU: 0xFA8E, offset: 0x220EF, size: 0x8, addend: 0x0, symName: __ZNSt3__116reverse_iteratorINS0_IPNS_6vectorI4NodeNS_9allocatorIS2_EEEEEEEC1B8ue170006ES7_, symObjAddr: 0x4174, symBinAddr: 0x1000080D8, symSize: 0x3C }
  - { offsetInCU: 0xFAC4, offset: 0x22125, size: 0x8, addend: 0x0, symName: __ZNSt3__116allocator_traitsINS_9allocatorINS_6vectorI4NodeNS1_IS3_EEEEEEE7destroyB8ue170006IS5_vEEvRS6_PT_, symObjAddr: 0x4210, symBinAddr: 0x100008174, symSize: 0x2C }
  - { offsetInCU: 0xFB00, offset: 0x22161, size: 0x8, addend: 0x0, symName: __ZNSt3__116reverse_iteratorINS0_IPNS_6vectorI4NodeNS_9allocatorIS2_EEEEEEEppB8ue170006Ev, symObjAddr: 0x4260, symBinAddr: 0x1000081C4, symSize: 0x30 }
  - { offsetInCU: 0xFB24, offset: 0x22185, size: 0x8, addend: 0x0, symName: __ZNKSt3__116reverse_iteratorINS0_IPNS_6vectorI4NodeNS_9allocatorIS2_EEEEEEE4baseB8ue170006Ev, symObjAddr: 0x4290, symBinAddr: 0x1000081F4, symSize: 0x24 }
  - { offsetInCU: 0xFB48, offset: 0x221A9, size: 0x8, addend: 0x0, symName: __ZNSt3__19allocatorINS_6vectorI4NodeNS0_IS2_EEEEE7destroyB8ue170006EPS4_, symObjAddr: 0x42B4, symBinAddr: 0x100008218, symSize: 0x28 }
  - { offsetInCU: 0xFB7F, offset: 0x221E0, size: 0x8, addend: 0x0, symName: __ZNSt3__119__to_address_helperINS_16reverse_iteratorINS1_IPNS_6vectorI4NodeNS_9allocatorIS3_EEEEEEEEvE6__callB8ue170006ERKS9_, symObjAddr: 0x42DC, symBinAddr: 0x100008240, symSize: 0x38 }
  - { offsetInCU: 0xFBA1, offset: 0x22202, size: 0x8, addend: 0x0, symName: __ZNKSt3__116reverse_iteratorINS0_IPNS_6vectorI4NodeNS_9allocatorIS2_EEEEEEEptB8ue170006Ev, symObjAddr: 0x4314, symBinAddr: 0x100008278, symSize: 0x24 }
  - { offsetInCU: 0xFBC5, offset: 0x22226, size: 0x8, addend: 0x0, symName: __ZNKSt3__116reverse_iteratorINS0_IPNS_6vectorI4NodeNS_9allocatorIS2_EEEEEEEdeB8ue170006Ev, symObjAddr: 0x4338, symBinAddr: 0x10000829C, symSize: 0x34 }
  - { offsetInCU: 0xFBF8, offset: 0x22259, size: 0x8, addend: 0x0, symName: __ZNSt3__116reverse_iteratorIPNS_6vectorI4NodeNS_9allocatorIS2_EEEEEmmB8ue170006Ev, symObjAddr: 0x436C, symBinAddr: 0x1000082D0, symSize: 0x20 }
  - { offsetInCU: 0xFC1C, offset: 0x2227D, size: 0x8, addend: 0x0, symName: __ZNSt3__116reverse_iteratorINS0_IPNS_6vectorI4NodeNS_9allocatorIS2_EEEEEEEC2B8ue170006ES7_, symObjAddr: 0x438C, symBinAddr: 0x1000082F0, symSize: 0x2C }
  - { offsetInCU: 0xFC52, offset: 0x222B3, size: 0x8, addend: 0x0, symName: __ZNSt3__116reverse_iteratorIPNS_6vectorI4NodeNS_9allocatorIS2_EEEEEC2B8ue170006ES6_, symObjAddr: 0x43B8, symBinAddr: 0x10000831C, symSize: 0x28 }
  - { offsetInCU: 0xFC88, offset: 0x222E9, size: 0x8, addend: 0x0, symName: __ZNSt3__114__split_bufferINS_6vectorI4NodeNS_9allocatorIS2_EEEERNS3_IS5_EEED2Ev, symObjAddr: 0x43E0, symBinAddr: 0x100008344, symSize: 0x8C }
  - { offsetInCU: 0xFCB3, offset: 0x22314, size: 0x8, addend: 0x0, symName: __ZNSt3__114__split_bufferINS_6vectorI4NodeNS_9allocatorIS2_EEEERNS3_IS5_EEE5clearB8ue170006Ev, symObjAddr: 0x446C, symBinAddr: 0x1000083D0, symSize: 0x28 }
  - { offsetInCU: 0xFCD7, offset: 0x22338, size: 0x8, addend: 0x0, symName: __ZNSt3__116allocator_traitsINS_9allocatorINS_6vectorI4NodeNS1_IS3_EEEEEEE10deallocateB8ue170006ERS6_PS5_m, symObjAddr: 0x4494, symBinAddr: 0x1000083F8, symSize: 0x34 }
  - { offsetInCU: 0xFD18, offset: 0x22379, size: 0x8, addend: 0x0, symName: __ZNKSt3__114__split_bufferINS_6vectorI4NodeNS_9allocatorIS2_EEEERNS3_IS5_EEE8capacityB8ue170006Ev, symObjAddr: 0x44C8, symBinAddr: 0x10000842C, symSize: 0x40 }
  - { offsetInCU: 0xFD3C, offset: 0x2239D, size: 0x8, addend: 0x0, symName: __ZNSt3__114__split_bufferINS_6vectorI4NodeNS_9allocatorIS2_EEEERNS3_IS5_EEE17__destruct_at_endB8ue170006EPS5_, symObjAddr: 0x4508, symBinAddr: 0x10000846C, symSize: 0x2C }
  - { offsetInCU: 0xFD6D, offset: 0x223CE, size: 0x8, addend: 0x0, symName: __ZNSt3__114__split_bufferINS_6vectorI4NodeNS_9allocatorIS2_EEEERNS3_IS5_EEE17__destruct_at_endB8ue170006EPS5_NS_17integral_constantIbLb0EEE, symObjAddr: 0x4534, symBinAddr: 0x100008498, symSize: 0x80 }
  - { offsetInCU: 0xFDAC, offset: 0x2240D, size: 0x8, addend: 0x0, symName: __ZNSt3__19allocatorINS_6vectorI4NodeNS0_IS2_EEEEE10deallocateB8ue170006EPS4_m, symObjAddr: 0x45B4, symBinAddr: 0x100008518, symSize: 0x44 }
  - { offsetInCU: 0xFDEC, offset: 0x2244D, size: 0x8, addend: 0x0, symName: __ZNKSt3__114__split_bufferINS_6vectorI4NodeNS_9allocatorIS2_EEEERNS3_IS5_EEE9__end_capB8ue170006Ev, symObjAddr: 0x45F8, symBinAddr: 0x10000855C, symSize: 0x28 }
  - { offsetInCU: 0xFE10, offset: 0x22471, size: 0x8, addend: 0x0, symName: __ZNKSt3__117__compressed_pairIPNS_6vectorI4NodeNS_9allocatorIS2_EEEERNS3_IS5_EEE5firstB8ue170006Ev, symObjAddr: 0x4620, symBinAddr: 0x100008584, symSize: 0x24 }
  - { offsetInCU: 0xFE34, offset: 0x22495, size: 0x8, addend: 0x0, symName: __ZNSt3__16vectorINS0_I4NodeNS_9allocatorIS1_EEEENS2_IS4_EEE22__base_destruct_at_endB8ue170006EPS4_, symObjAddr: 0x4644, symBinAddr: 0x1000085A8, symSize: 0x8C }
  - { offsetInCU: 0xFE76, offset: 0x224D7, size: 0x8, addend: 0x0, symName: __ZNKSt3__16vectorINS0_I4NodeNS_9allocatorIS1_EEEENS2_IS4_EEE17__annotate_shrinkB8ue170006Em, symObjAddr: 0x46D0, symBinAddr: 0x100008634, symSize: 0xD0 }
  - { offsetInCU: 0xFEA9, offset: 0x2250A, size: 0x8, addend: 0x0, symName: __ZNSt3__16vectorI4NodeNS_9allocatorIS1_EEEC2Em, symObjAddr: 0x47A0, symBinAddr: 0x100008704, symSize: 0xD4 }
  - { offsetInCU: 0xFEF8, offset: 0x22559, size: 0x8, addend: 0x0, symName: __ZNSt3__117__compressed_pairIP4NodeNS_9allocatorIS1_EEEC1B8ue170006IDnNS_18__default_init_tagEEEOT_OT0_, symObjAddr: 0x4874, symBinAddr: 0x1000087D8, symSize: 0x3C }
  - { offsetInCU: 0xFF4D, offset: 0x225AE, size: 0x8, addend: 0x0, symName: __ZNSt3__16vectorI4NodeNS_9allocatorIS1_EEE18__construct_at_endEm, symObjAddr: 0x48B0, symBinAddr: 0x100008814, symSize: 0xC8 }
  - { offsetInCU: 0xFFBF, offset: 0x22620, size: 0x8, addend: 0x0, symName: __ZNSt3__117__compressed_pairIP4NodeNS_9allocatorIS1_EEEC2B8ue170006IDnNS_18__default_init_tagEEEOT_OT0_, symObjAddr: 0x4978, symBinAddr: 0x1000088DC, symSize: 0x40 }
  - { offsetInCU: 0x10015, offset: 0x22676, size: 0x8, addend: 0x0, symName: __ZNSt3__122__compressed_pair_elemINS_9allocatorI4NodeEELi1ELb1EEC2B8ue170006ENS_18__default_init_tagE, symObjAddr: 0x49B8, symBinAddr: 0x10000891C, symSize: 0x2C }
  - { offsetInCU: 0x10047, offset: 0x226A8, size: 0x8, addend: 0x0, symName: __ZNSt3__19allocatorI4NodeEC2B8ue170006Ev, symObjAddr: 0x49E4, symBinAddr: 0x100008948, symSize: 0x2C }
  - { offsetInCU: 0x1006F, offset: 0x226D0, size: 0x8, addend: 0x0, symName: __ZNSt3__116__non_trivial_ifILb1ENS_9allocatorI4NodeEEEC2B8ue170006Ev, symObjAddr: 0x4A10, symBinAddr: 0x100008974, symSize: 0x14 }
  - { offsetInCU: 0x10097, offset: 0x226F8, size: 0x8, addend: 0x0, symName: __ZNSt3__116allocator_traitsINS_9allocatorI4NodeEEE9constructB8ue170006IS2_JEvEEvRS3_PT_DpOT0_, symObjAddr: 0x4A24, symBinAddr: 0x100008988, symSize: 0x2C }
  - { offsetInCU: 0x100D9, offset: 0x2273A, size: 0x8, addend: 0x0, symName: __ZNSt3__19allocatorI4NodeE9constructB8ue170006IS1_JEEEvPT_DpOT0_, symObjAddr: 0x4A50, symBinAddr: 0x1000089B4, symSize: 0x28 }
  - { offsetInCU: 0x1011A, offset: 0x2277B, size: 0x8, addend: 0x0, symName: __ZN4NodeC1Ev, symObjAddr: 0x4A78, symBinAddr: 0x1000089DC, symSize: 0x2C }
  - { offsetInCU: 0x10142, offset: 0x227A3, size: 0x8, addend: 0x0, symName: __ZN4NodeC2Ev, symObjAddr: 0x4AA4, symBinAddr: 0x100008A08, symSize: 0x3C }
  - { offsetInCU: 0x1016A, offset: 0x227CB, size: 0x8, addend: 0x0, symName: __ZNSt3__16vectorI4NodeNS_9allocatorIS1_EEED2B8ue170006Ev, symObjAddr: 0x4AE0, symBinAddr: 0x100008A44, symSize: 0x40 }
  - { offsetInCU: 0x10192, offset: 0x227F3, size: 0x8, addend: 0x0, symName: __ZNSt3__16vectorINS0_I4NodeNS_9allocatorIS1_EEEENS2_IS4_EEED2B8ue170006Ev, symObjAddr: 0x4B20, symBinAddr: 0x100008A84, symSize: 0x44 }
  - { offsetInCU: 0x101BA, offset: 0x2281B, size: 0x8, addend: 0x0, symName: __ZNSt3__16vectorINS0_I4NodeNS_9allocatorIS1_EEEENS2_IS4_EEE16__destroy_vectorC1B8ue170006ERS6_, symObjAddr: 0x4B64, symBinAddr: 0x100008AC8, symSize: 0x34 }
  - { offsetInCU: 0x101F1, offset: 0x22852, size: 0x8, addend: 0x0, symName: __ZNSt3__16vectorINS0_I4NodeNS_9allocatorIS1_EEEENS2_IS4_EEE16__destroy_vectorclB8ue170006Ev, symObjAddr: 0x4B98, symBinAddr: 0x100008AFC, symSize: 0x90 }
  - { offsetInCU: 0x10215, offset: 0x22876, size: 0x8, addend: 0x0, symName: __ZNSt3__16vectorINS0_I4NodeNS_9allocatorIS1_EEEENS2_IS4_EEE16__destroy_vectorC2B8ue170006ERS6_, symObjAddr: 0x4C28, symBinAddr: 0x100008B8C, symSize: 0x20 }
  - { offsetInCU: 0x1024C, offset: 0x228AD, size: 0x8, addend: 0x0, symName: __ZNSt3__16vectorINS0_I4NodeNS_9allocatorIS1_EEEENS2_IS4_EEE7__clearB8ue170006Ev, symObjAddr: 0x4C48, symBinAddr: 0x100008BAC, symSize: 0x28 }
  - { offsetInCU: 0x10270, offset: 0x228D1, size: 0x8, addend: 0x0, symName: __ZNSt3__114basic_ofstreamIcNS_11char_traitsIcEEED2Ev, symObjAddr: 0x4C70, symBinAddr: 0x100008BD4, symSize: 0x64 }
  - { offsetInCU: 0x102A8, offset: 0x22909, size: 0x8, addend: 0x0, symName: __ZTv0_n24_NSt3__114basic_ofstreamIcNS_11char_traitsIcEEED1Ev, symObjAddr: 0x4CD4, symBinAddr: 0x100008C38, symSize: 0x28 }
  - { offsetInCU: 0x102BF, offset: 0x22920, size: 0x8, addend: 0x0, symName: __ZN3MapD2Ev, symObjAddr: 0x4CFC, symBinAddr: 0x100008C60, symSize: 0x30 }
  - { offsetInCU: 0x102EA, offset: 0x2294B, size: 0x8, addend: 0x0, symName: __ZNSt3__14pairIiiEC2B8ue170006IiiLPv0EEEOT_OT0_, symObjAddr: 0x4D2C, symBinAddr: 0x100008C90, symSize: 0x34 }
  - { offsetInCU: 0x10347, offset: 0x229A8, size: 0x8, addend: 0x0, symName: __ZNSt3__16vectorIiNS_9allocatorIiEEEC2B8ue170006Ev, symObjAddr: 0x4D60, symBinAddr: 0x100008CC4, symSize: 0x4C }
  - { offsetInCU: 0x1036F, offset: 0x229D0, size: 0x8, addend: 0x0, symName: __ZNSt3__117__compressed_pairIPiNS_9allocatorIiEEEC1B8ue170006IDnNS_18__default_init_tagEEEOT_OT0_, symObjAddr: 0x4DAC, symBinAddr: 0x100008D10, symSize: 0x3C }
  - { offsetInCU: 0x103C5, offset: 0x22A26, size: 0x8, addend: 0x0, symName: __ZNSt3__117__compressed_pairIPiNS_9allocatorIiEEEC2B8ue170006IDnNS_18__default_init_tagEEEOT_OT0_, symObjAddr: 0x4DE8, symBinAddr: 0x100008D4C, symSize: 0x40 }
  - { offsetInCU: 0x1041B, offset: 0x22A7C, size: 0x8, addend: 0x0, symName: __ZNSt3__122__compressed_pair_elemIPiLi0ELb0EEC2B8ue170006IDnvEEOT_, symObjAddr: 0x4E28, symBinAddr: 0x100008D8C, symSize: 0x1C }
  - { offsetInCU: 0x1045B, offset: 0x22ABC, size: 0x8, addend: 0x0, symName: __ZNSt3__122__compressed_pair_elemINS_9allocatorIiEELi1ELb1EEC2B8ue170006ENS_18__default_init_tagE, symObjAddr: 0x4E44, symBinAddr: 0x100008DA8, symSize: 0x2C }
  - { offsetInCU: 0x1048D, offset: 0x22AEE, size: 0x8, addend: 0x0, symName: __ZNSt3__19allocatorIiEC2B8ue170006Ev, symObjAddr: 0x4E70, symBinAddr: 0x100008DD4, symSize: 0x2C }
  - { offsetInCU: 0x104B5, offset: 0x22B16, size: 0x8, addend: 0x0, symName: __ZNSt3__116__non_trivial_ifILb1ENS_9allocatorIiEEEC2B8ue170006Ev, symObjAddr: 0x4E9C, symBinAddr: 0x100008E00, symSize: 0x14 }
  - { offsetInCU: 0x104DD, offset: 0x22B3E, size: 0x8, addend: 0x0, symName: __ZNSt3__16vectorIiNS_9allocatorIiEEED2B8ue170006Ev, symObjAddr: 0x4EB0, symBinAddr: 0x100008E14, symSize: 0x44 }
  - { offsetInCU: 0x10505, offset: 0x22B66, size: 0x8, addend: 0x0, symName: __ZNSt3__16vectorIiNS_9allocatorIiEEE16__destroy_vectorC1B8ue170006ERS3_, symObjAddr: 0x4EF4, symBinAddr: 0x100008E58, symSize: 0x34 }
  - { offsetInCU: 0x1053C, offset: 0x22B9D, size: 0x8, addend: 0x0, symName: __ZNSt3__16vectorIiNS_9allocatorIiEEE16__destroy_vectorclB8ue170006Ev, symObjAddr: 0x4F28, symBinAddr: 0x100008E8C, symSize: 0x90 }
  - { offsetInCU: 0x10560, offset: 0x22BC1, size: 0x8, addend: 0x0, symName: __ZNSt3__16vectorIiNS_9allocatorIiEEE16__destroy_vectorC2B8ue170006ERS3_, symObjAddr: 0x4FB8, symBinAddr: 0x100008F1C, symSize: 0x20 }
  - { offsetInCU: 0x10597, offset: 0x22BF8, size: 0x8, addend: 0x0, symName: __ZNSt3__16vectorIiNS_9allocatorIiEEE7__clearB8ue170006Ev, symObjAddr: 0x4FD8, symBinAddr: 0x100008F3C, symSize: 0x28 }
  - { offsetInCU: 0x105BB, offset: 0x22C1C, size: 0x8, addend: 0x0, symName: __ZNKSt3__16vectorIiNS_9allocatorIiEEE17__annotate_deleteB8ue170006Ev, symObjAddr: 0x5000, symBinAddr: 0x100008F64, symSize: 0xB8 }
  - { offsetInCU: 0x105DF, offset: 0x22C40, size: 0x8, addend: 0x0, symName: __ZNSt3__116allocator_traitsINS_9allocatorIiEEE10deallocateB8ue170006ERS2_Pim, symObjAddr: 0x50B8, symBinAddr: 0x10000901C, symSize: 0x34 }
  - { offsetInCU: 0x10620, offset: 0x22C81, size: 0x8, addend: 0x0, symName: __ZNSt3__16vectorIiNS_9allocatorIiEEE7__allocB8ue170006Ev, symObjAddr: 0x50EC, symBinAddr: 0x100009050, symSize: 0x28 }
  - { offsetInCU: 0x10644, offset: 0x22CA5, size: 0x8, addend: 0x0, symName: __ZNKSt3__16vectorIiNS_9allocatorIiEEE8capacityB8ue170006Ev, symObjAddr: 0x5114, symBinAddr: 0x100009078, symSize: 0x40 }
  - { offsetInCU: 0x10668, offset: 0x22CC9, size: 0x8, addend: 0x0, symName: __ZNSt3__16vectorIiNS_9allocatorIiEEE22__base_destruct_at_endB8ue170006EPi, symObjAddr: 0x5154, symBinAddr: 0x1000090B8, symSize: 0x8C }
  - { offsetInCU: 0x106AA, offset: 0x22D0B, size: 0x8, addend: 0x0, symName: __ZNSt3__116allocator_traitsINS_9allocatorIiEEE7destroyB8ue170006IivEEvRS2_PT_, symObjAddr: 0x51E0, symBinAddr: 0x100009144, symSize: 0x2C }
  - { offsetInCU: 0x106E6, offset: 0x22D47, size: 0x8, addend: 0x0, symName: __ZNSt3__19allocatorIiE7destroyB8ue170006EPi, symObjAddr: 0x5220, symBinAddr: 0x100009184, symSize: 0x14 }
  - { offsetInCU: 0x10718, offset: 0x22D79, size: 0x8, addend: 0x0, symName: __ZNKSt3__16vectorIiNS_9allocatorIiEEE31__annotate_contiguous_containerB8ue170006EPKvS5_S5_S5_, symObjAddr: 0x5234, symBinAddr: 0x100009198, symSize: 0x20 }
  - { offsetInCU: 0x1076C, offset: 0x22DCD, size: 0x8, addend: 0x0, symName: __ZNKSt3__16vectorIiNS_9allocatorIiEEE4dataB8ue170006Ev, symObjAddr: 0x5254, symBinAddr: 0x1000091B8, symSize: 0x28 }
  - { offsetInCU: 0x10790, offset: 0x22DF1, size: 0x8, addend: 0x0, symName: __ZNSt3__19allocatorIiE10deallocateB8ue170006EPim, symObjAddr: 0x527C, symBinAddr: 0x1000091E0, symSize: 0x40 }
  - { offsetInCU: 0x107D0, offset: 0x22E31, size: 0x8, addend: 0x0, symName: __ZNSt3__117__compressed_pairIPiNS_9allocatorIiEEE6secondB8ue170006Ev, symObjAddr: 0x52BC, symBinAddr: 0x100009220, symSize: 0x24 }
  - { offsetInCU: 0x107F4, offset: 0x22E55, size: 0x8, addend: 0x0, symName: __ZNSt3__122__compressed_pair_elemINS_9allocatorIiEELi1ELb1EE5__getB8ue170006Ev, symObjAddr: 0x52E0, symBinAddr: 0x100009244, symSize: 0x14 }
  - { offsetInCU: 0x10818, offset: 0x22E79, size: 0x8, addend: 0x0, symName: __ZNKSt3__16vectorIiNS_9allocatorIiEEE9__end_capB8ue170006Ev, symObjAddr: 0x52F4, symBinAddr: 0x100009258, symSize: 0x28 }
  - { offsetInCU: 0x1083C, offset: 0x22E9D, size: 0x8, addend: 0x0, symName: __ZNKSt3__117__compressed_pairIPiNS_9allocatorIiEEE5firstB8ue170006Ev, symObjAddr: 0x531C, symBinAddr: 0x100009280, symSize: 0x24 }
  - { offsetInCU: 0x10860, offset: 0x22EC1, size: 0x8, addend: 0x0, symName: __ZNKSt3__122__compressed_pair_elemIPiLi0ELb0EE5__getB8ue170006Ev, symObjAddr: 0x5340, symBinAddr: 0x1000092A4, symSize: 0x14 }
  - { offsetInCU: 0x10884, offset: 0x22EE5, size: 0x8, addend: 0x0, symName: __ZNSt3__16vectorIiNS_9allocatorIiEEE9__end_capB8ue170006Ev, symObjAddr: 0x5354, symBinAddr: 0x1000092B8, symSize: 0x28 }
  - { offsetInCU: 0x108A8, offset: 0x22F09, size: 0x8, addend: 0x0, symName: __ZNSt3__16vectorIiNS_9allocatorIiEEE22__construct_one_at_endB8ue170006IJiEEEvDpOT_, symObjAddr: 0x537C, symBinAddr: 0x1000092E0, symSize: 0x90 }
  - { offsetInCU: 0x108F6, offset: 0x22F57, size: 0x8, addend: 0x0, symName: __ZNSt3__16vectorIiNS_9allocatorIiEEE21__push_back_slow_pathIiEEvOT_, symObjAddr: 0x540C, symBinAddr: 0x100009370, symSize: 0xD8 }
  - { offsetInCU: 0x10953, offset: 0x22FB4, size: 0x8, addend: 0x0, symName: __ZNSt3__117__compressed_pairIPiNS_9allocatorIiEEE5firstB8ue170006Ev, symObjAddr: 0x54E4, symBinAddr: 0x100009448, symSize: 0x24 }
  - { offsetInCU: 0x10977, offset: 0x22FD8, size: 0x8, addend: 0x0, symName: __ZNSt3__122__compressed_pair_elemIPiLi0ELb0EE5__getB8ue170006Ev, symObjAddr: 0x5508, symBinAddr: 0x10000946C, symSize: 0x14 }
  - { offsetInCU: 0x109B4, offset: 0x23015, size: 0x8, addend: 0x0, symName: __ZNSt3__16vectorIiNS_9allocatorIiEEE21_ConstructTransactionC1B8ue170006ERS3_m, symObjAddr: 0x551C, symBinAddr: 0x100009480, symSize: 0x3C }
  - { offsetInCU: 0x109FA, offset: 0x2305B, size: 0x8, addend: 0x0, symName: __ZNSt3__116allocator_traitsINS_9allocatorIiEEE9constructB8ue170006IiJiEvEEvRS2_PT_DpOT0_, symObjAddr: 0x5558, symBinAddr: 0x1000094BC, symSize: 0x34 }
  - { offsetInCU: 0x10A52, offset: 0x230B3, size: 0x8, addend: 0x0, symName: __ZNSt3__16vectorIiNS_9allocatorIiEEE21_ConstructTransactionD1B8ue170006Ev, symObjAddr: 0x558C, symBinAddr: 0x1000094F0, symSize: 0x2C }
  - { offsetInCU: 0x10A7A, offset: 0x230DB, size: 0x8, addend: 0x0, symName: __ZNSt3__16vectorIiNS_9allocatorIiEEE21_ConstructTransactionC2B8ue170006ERS3_m, symObjAddr: 0x55B8, symBinAddr: 0x10000951C, symSize: 0x44 }
  - { offsetInCU: 0x10AC0, offset: 0x23121, size: 0x8, addend: 0x0, symName: __ZNSt3__19allocatorIiE9constructB8ue170006IiJiEEEvPT_DpOT0_, symObjAddr: 0x55FC, symBinAddr: 0x100009560, symSize: 0x28 }
  - { offsetInCU: 0x10B16, offset: 0x23177, size: 0x8, addend: 0x0, symName: __ZNSt3__16vectorIiNS_9allocatorIiEEE21_ConstructTransactionD2B8ue170006Ev, symObjAddr: 0x5624, symBinAddr: 0x100009588, symSize: 0x20 }
  - { offsetInCU: 0x10B3D, offset: 0x2319E, size: 0x8, addend: 0x0, symName: __ZNKSt3__16vectorIiNS_9allocatorIiEEE11__recommendB8ue170006Em, symObjAddr: 0x5644, symBinAddr: 0x1000095A8, symSize: 0xB4 }
  - { offsetInCU: 0x10B91, offset: 0x231F2, size: 0x8, addend: 0x0, symName: __ZNSt3__114__split_bufferIiRNS_9allocatorIiEEEC1EmmS3_, symObjAddr: 0x56F8, symBinAddr: 0x10000965C, symSize: 0x44 }
  - { offsetInCU: 0x10BE6, offset: 0x23247, size: 0x8, addend: 0x0, symName: __ZNSt3__114__split_bufferIiRNS_9allocatorIiEEED1Ev, symObjAddr: 0x584C, symBinAddr: 0x1000097B0, symSize: 0x2C }
  - { offsetInCU: 0x10C10, offset: 0x23271, size: 0x8, addend: 0x0, symName: __ZNKSt3__16vectorIiNS_9allocatorIiEEE8max_sizeEv, symObjAddr: 0x5878, symBinAddr: 0x1000097DC, symSize: 0x60 }
  - { offsetInCU: 0x10C37, offset: 0x23298, size: 0x8, addend: 0x0, symName: __ZNKSt3__16vectorIiNS_9allocatorIiEEE20__throw_length_errorB8ue170006Ev, symObjAddr: 0x58D8, symBinAddr: 0x10000983C, symSize: 0x1C }
  - { offsetInCU: 0x10C65, offset: 0x232C6, size: 0x8, addend: 0x0, symName: __ZNSt3__116allocator_traitsINS_9allocatorIiEEE8max_sizeB8ue170006IS2_vEEmRKS2_, symObjAddr: 0x58F4, symBinAddr: 0x100009858, symSize: 0x24 }
  - { offsetInCU: 0x10C92, offset: 0x232F3, size: 0x8, addend: 0x0, symName: __ZNKSt3__16vectorIiNS_9allocatorIiEEE7__allocB8ue170006Ev, symObjAddr: 0x5918, symBinAddr: 0x10000987C, symSize: 0x28 }
  - { offsetInCU: 0x10CB6, offset: 0x23317, size: 0x8, addend: 0x0, symName: __ZNKSt3__19allocatorIiE8max_sizeB8ue170006Ev, symObjAddr: 0x5940, symBinAddr: 0x1000098A4, symSize: 0x14 }
  - { offsetInCU: 0x10CDA, offset: 0x2333B, size: 0x8, addend: 0x0, symName: __ZNKSt3__117__compressed_pairIPiNS_9allocatorIiEEE6secondB8ue170006Ev, symObjAddr: 0x5954, symBinAddr: 0x1000098B8, symSize: 0x24 }
  - { offsetInCU: 0x10CFE, offset: 0x2335F, size: 0x8, addend: 0x0, symName: __ZNKSt3__122__compressed_pair_elemINS_9allocatorIiEELi1ELb1EE5__getB8ue170006Ev, symObjAddr: 0x5978, symBinAddr: 0x1000098DC, symSize: 0x14 }
  - { offsetInCU: 0x10D22, offset: 0x23383, size: 0x8, addend: 0x0, symName: __ZNSt3__114__split_bufferIiRNS_9allocatorIiEEEC2EmmS3_, symObjAddr: 0x598C, symBinAddr: 0x1000098F0, symSize: 0xD4 }
  - { offsetInCU: 0x10D95, offset: 0x233F6, size: 0x8, addend: 0x0, symName: __ZNSt3__117__compressed_pairIPiRNS_9allocatorIiEEEC1B8ue170006IDnS4_EEOT_OT0_, symObjAddr: 0x5A60, symBinAddr: 0x1000099C4, symSize: 0x3C }
  - { offsetInCU: 0x10DEB, offset: 0x2344C, size: 0x8, addend: 0x0, symName: __ZNSt3__114__split_bufferIiRNS_9allocatorIiEEE7__allocB8ue170006Ev, symObjAddr: 0x5ADC, symBinAddr: 0x100009A40, symSize: 0x28 }
  - { offsetInCU: 0x10E0F, offset: 0x23470, size: 0x8, addend: 0x0, symName: __ZNSt3__114__split_bufferIiRNS_9allocatorIiEEE9__end_capB8ue170006Ev, symObjAddr: 0x5B04, symBinAddr: 0x100009A68, symSize: 0x28 }
  - { offsetInCU: 0x10E33, offset: 0x23494, size: 0x8, addend: 0x0, symName: __ZNSt3__117__compressed_pairIPiRNS_9allocatorIiEEEC2B8ue170006IDnS4_EEOT_OT0_, symObjAddr: 0x5B2C, symBinAddr: 0x100009A90, symSize: 0x48 }
  - { offsetInCU: 0x10E89, offset: 0x234EA, size: 0x8, addend: 0x0, symName: __ZNSt3__122__compressed_pair_elemIRNS_9allocatorIiEELi1ELb0EEC2B8ue170006IS3_vEEOT_, symObjAddr: 0x5B74, symBinAddr: 0x100009AD8, symSize: 0x20 }
  - { offsetInCU: 0x10EC9, offset: 0x2352A, size: 0x8, addend: 0x0, symName: __ZNSt3__19allocatorIiE8allocateB8ue170006Em, symObjAddr: 0x5B94, symBinAddr: 0x100009AF8, symSize: 0x58 }
  - { offsetInCU: 0x10EFB, offset: 0x2355C, size: 0x8, addend: 0x0, symName: __ZNSt3__117__compressed_pairIPiRNS_9allocatorIiEEE6secondB8ue170006Ev, symObjAddr: 0x5BEC, symBinAddr: 0x100009B50, symSize: 0x28 }
  - { offsetInCU: 0x10F1F, offset: 0x23580, size: 0x8, addend: 0x0, symName: __ZNSt3__122__compressed_pair_elemIRNS_9allocatorIiEELi1ELb0EE5__getB8ue170006Ev, symObjAddr: 0x5C14, symBinAddr: 0x100009B78, symSize: 0x18 }
  - { offsetInCU: 0x10F43, offset: 0x235A4, size: 0x8, addend: 0x0, symName: __ZNSt3__117__compressed_pairIPiRNS_9allocatorIiEEE5firstB8ue170006Ev, symObjAddr: 0x5C2C, symBinAddr: 0x100009B90, symSize: 0x24 }
  - { offsetInCU: 0x10F67, offset: 0x235C8, size: 0x8, addend: 0x0, symName: __ZNSt3__116reverse_iteratorIPiEC1B8ue170006ES1_, symObjAddr: 0x5CC8, symBinAddr: 0x100009C2C, symSize: 0x34 }
  - { offsetInCU: 0x10F9D, offset: 0x235FE, size: 0x8, addend: 0x0, symName: __ZNKSt3__116reverse_iteratorIPiE4baseB8ue170006Ev, symObjAddr: 0x5CFC, symBinAddr: 0x100009C60, symSize: 0x18 }
  - { offsetInCU: 0x10FC1, offset: 0x23622, size: 0x8, addend: 0x0, symName: __ZNKSt3__16vectorIiNS_9allocatorIiEEE14__annotate_newB8ue170006Em, symObjAddr: 0x5D50, symBinAddr: 0x100009CB4, symSize: 0xAC }
  - { offsetInCU: 0x11017, offset: 0x23678, size: 0x8, addend: 0x0, symName: __ZNKSt3__111__move_loopINS_17_ClassicAlgPolicyEEclB8ue170006INS_16reverse_iteratorIPiEES6_S6_EENS_4pairIT_T1_EES8_T0_S9_, symObjAddr: 0x60EC, symBinAddr: 0x10000A050, symSize: 0xA0 }
  - { offsetInCU: 0x11080, offset: 0x236E1, size: 0x8, addend: 0x0, symName: __ZNSt3__18_IterOpsINS_17_ClassicAlgPolicyEE11__iter_moveB8ue170006IRNS_16reverse_iteratorIPiEEEENS_9enable_ifIXsr12is_referenceIDTdeclsr3stdE7declvalIRT_EEEEE5valueEDTclsr3stdE4movedeclsr3stdE7declvalISA_EEEEE4typeEOS9_, symObjAddr: 0x6320, symBinAddr: 0x10000A284, symSize: 0x28 }
  - { offsetInCU: 0x110AB, offset: 0x2370C, size: 0x8, addend: 0x0, symName: __ZNKSt3__116reverse_iteratorIPiEdeB8ue170006Ev, symObjAddr: 0x6348, symBinAddr: 0x10000A2AC, symSize: 0x28 }
  - { offsetInCU: 0x110DE, offset: 0x2373F, size: 0x8, addend: 0x0, symName: __ZNSt3__116reverse_iteratorIPiEppB8ue170006Ev, symObjAddr: 0x6370, symBinAddr: 0x10000A2D4, symSize: 0x20 }
  - { offsetInCU: 0x11102, offset: 0x23763, size: 0x8, addend: 0x0, symName: __ZNSt3__18_IterOpsINS_17_ClassicAlgPolicyEE25__validate_iter_referenceB8ue170006IRNS_16reverse_iteratorIPiEEEEvv, symObjAddr: 0x6390, symBinAddr: 0x10000A2F4, symSize: 0x4 }
  - { offsetInCU: 0x1111F, offset: 0x23780, size: 0x8, addend: 0x0, symName: __ZNSt3__118__unwrap_iter_implINS_16reverse_iteratorIPiEELb0EE8__unwrapB8ue170006ES3_, symObjAddr: 0x6394, symBinAddr: 0x10000A2F8, symSize: 0x24 }
  - { offsetInCU: 0x11146, offset: 0x237A7, size: 0x8, addend: 0x0, symName: __ZNSt3__14pairINS_16reverse_iteratorIPiEES3_EC1B8ue170006IS3_S3_LPv0EEEOT_OT0_, symObjAddr: 0x63B8, symBinAddr: 0x10000A31C, symSize: 0x3C }
  - { offsetInCU: 0x111A3, offset: 0x23804, size: 0x8, addend: 0x0, symName: __ZNSt3__14pairINS_16reverse_iteratorIPiEES3_EC2B8ue170006IS3_S3_LPv0EEEOT_OT0_, symObjAddr: 0x63F4, symBinAddr: 0x10000A358, symSize: 0x34 }
  - { offsetInCU: 0x11200, offset: 0x23861, size: 0x8, addend: 0x0, symName: __ZNSt3__118__unwrap_iter_implINS_16reverse_iteratorIPiEELb0EE8__rewrapB8ue170006ES3_S3_, symObjAddr: 0x6428, symBinAddr: 0x10000A38C, symSize: 0x2C }
  - { offsetInCU: 0x1122C, offset: 0x2388D, size: 0x8, addend: 0x0, symName: __ZNSt3__116reverse_iteratorIPiEC2B8ue170006ES1_, symObjAddr: 0x6454, symBinAddr: 0x10000A3B8, symSize: 0x28 }
  - { offsetInCU: 0x11262, offset: 0x238C3, size: 0x8, addend: 0x0, symName: __ZNSt3__114__split_bufferIiRNS_9allocatorIiEEED2Ev, symObjAddr: 0x647C, symBinAddr: 0x10000A3E0, symSize: 0x8C }
  - { offsetInCU: 0x1128D, offset: 0x238EE, size: 0x8, addend: 0x0, symName: __ZNSt3__114__split_bufferIiRNS_9allocatorIiEEE5clearB8ue170006Ev, symObjAddr: 0x6508, symBinAddr: 0x10000A46C, symSize: 0x28 }
  - { offsetInCU: 0x112B1, offset: 0x23912, size: 0x8, addend: 0x0, symName: __ZNKSt3__114__split_bufferIiRNS_9allocatorIiEEE8capacityB8ue170006Ev, symObjAddr: 0x6530, symBinAddr: 0x10000A494, symSize: 0x40 }
  - { offsetInCU: 0x112D5, offset: 0x23936, size: 0x8, addend: 0x0, symName: __ZNSt3__114__split_bufferIiRNS_9allocatorIiEEE17__destruct_at_endB8ue170006EPi, symObjAddr: 0x6570, symBinAddr: 0x10000A4D4, symSize: 0x2C }
  - { offsetInCU: 0x11306, offset: 0x23967, size: 0x8, addend: 0x0, symName: __ZNSt3__114__split_bufferIiRNS_9allocatorIiEEE17__destruct_at_endB8ue170006EPiNS_17integral_constantIbLb0EEE, symObjAddr: 0x659C, symBinAddr: 0x10000A500, symSize: 0x80 }
  - { offsetInCU: 0x11345, offset: 0x239A6, size: 0x8, addend: 0x0, symName: __ZNKSt3__114__split_bufferIiRNS_9allocatorIiEEE9__end_capB8ue170006Ev, symObjAddr: 0x661C, symBinAddr: 0x10000A580, symSize: 0x28 }
  - { offsetInCU: 0x11369, offset: 0x239CA, size: 0x8, addend: 0x0, symName: __ZNKSt3__117__compressed_pairIPiRNS_9allocatorIiEEE5firstB8ue170006Ev, symObjAddr: 0x6644, symBinAddr: 0x10000A5A8, symSize: 0x24 }
  - { offsetInCU: 0x1138D, offset: 0x239EE, size: 0x8, addend: 0x0, symName: __ZNSt3__16vectorIiNS_9allocatorIiEEE22__construct_one_at_endB8ue170006IJRKiEEEvDpOT_, symObjAddr: 0x6668, symBinAddr: 0x10000A5CC, symSize: 0x90 }
  - { offsetInCU: 0x113DB, offset: 0x23A3C, size: 0x8, addend: 0x0, symName: __ZNSt3__16vectorIiNS_9allocatorIiEEE21__push_back_slow_pathIRKiEEvOT_, symObjAddr: 0x66F8, symBinAddr: 0x10000A65C, symSize: 0xD8 }
  - { offsetInCU: 0x11438, offset: 0x23A99, size: 0x8, addend: 0x0, symName: __ZNSt3__116allocator_traitsINS_9allocatorIiEEE9constructB8ue170006IiJRKiEvEEvRS2_PT_DpOT0_, symObjAddr: 0x67D0, symBinAddr: 0x10000A734, symSize: 0x34 }
  - { offsetInCU: 0x11490, offset: 0x23AF1, size: 0x8, addend: 0x0, symName: __ZNSt3__19allocatorIiE9constructB8ue170006IiJRKiEEEvPT_DpOT0_, symObjAddr: 0x6804, symBinAddr: 0x10000A768, symSize: 0x28 }
  - { offsetInCU: 0x114E6, offset: 0x23B47, size: 0x8, addend: 0x0, symName: __ZNSt3__16vectorIiNS_9allocatorIiEEE11__make_iterB8ue170006EPi, symObjAddr: 0x682C, symBinAddr: 0x10000A790, symSize: 0x30 }
  - { offsetInCU: 0x11519, offset: 0x23B7A, size: 0x8, addend: 0x0, symName: __ZNSt3__111__wrap_iterIPiEC1B8ue170006ES1_, symObjAddr: 0x685C, symBinAddr: 0x10000A7C0, symSize: 0x34 }
  - { offsetInCU: 0x1154F, offset: 0x23BB0, size: 0x8, addend: 0x0, symName: __ZNSt3__111__wrap_iterIPiEC2B8ue170006ES1_, symObjAddr: 0x6890, symBinAddr: 0x10000A7F4, symSize: 0x20 }
  - { offsetInCU: 0x11585, offset: 0x23BE6, size: 0x8, addend: 0x0, symName: __ZNSt3__111__wrap_iterIPiEpLB8ue170006El, symObjAddr: 0x68B0, symBinAddr: 0x10000A814, symSize: 0x28 }
  - { offsetInCU: 0x115B7, offset: 0x23C18, size: 0x8, addend: 0x0, symName: __ZNKSt3__16vectorIiNS_9allocatorIiEEE6cbeginB8ue170006Ev, symObjAddr: 0x6920, symBinAddr: 0x10000A884, symSize: 0x2C }
  - { offsetInCU: 0x115DB, offset: 0x23C3C, size: 0x8, addend: 0x0, symName: __ZNSt3__16vectorIiNS_9allocatorIiEEE17__destruct_at_endB8ue170006EPi, symObjAddr: 0x694C, symBinAddr: 0x10000A8B0, symSize: 0x4C }
  - { offsetInCU: 0x1161D, offset: 0x23C7E, size: 0x8, addend: 0x0, symName: __ZNKSt3__111__wrap_iterIPKiE4baseB8ue170006Ev, symObjAddr: 0x69D8, symBinAddr: 0x10000A93C, symSize: 0x18 }
  - { offsetInCU: 0x11640, offset: 0x23CA1, size: 0x8, addend: 0x0, symName: __ZNKSt3__16vectorIiNS_9allocatorIiEEE5beginB8ue170006Ev, symObjAddr: 0x69F0, symBinAddr: 0x10000A954, symSize: 0x30 }
  - { offsetInCU: 0x11667, offset: 0x23CC8, size: 0x8, addend: 0x0, symName: __ZNKSt3__16vectorIiNS_9allocatorIiEEE11__make_iterB8ue170006EPKi, symObjAddr: 0x6A20, symBinAddr: 0x10000A984, symSize: 0x30 }
  - { offsetInCU: 0x1169A, offset: 0x23CFB, size: 0x8, addend: 0x0, symName: __ZNSt3__111__wrap_iterIPKiEC1B8ue170006ES2_, symObjAddr: 0x6A50, symBinAddr: 0x10000A9B4, symSize: 0x34 }
  - { offsetInCU: 0x116D0, offset: 0x23D31, size: 0x8, addend: 0x0, symName: __ZNSt3__111__wrap_iterIPKiEC2B8ue170006ES2_, symObjAddr: 0x6A84, symBinAddr: 0x10000A9E8, symSize: 0x20 }
  - { offsetInCU: 0x11706, offset: 0x23D67, size: 0x8, addend: 0x0, symName: __ZNKSt3__16vectorIiNS_9allocatorIiEEE17__annotate_shrinkB8ue170006Em, symObjAddr: 0x6AA4, symBinAddr: 0x10000AA08, symSize: 0xB4 }
  - { offsetInCU: 0x1175C, offset: 0x23DBD, size: 0x8, addend: 0x0, symName: __ZNKSt3__114__move_trivialclB8ue170006IiiLi0EEENS_4pairIPT_PT0_EES4_S4_S6_, symObjAddr: 0x6CF4, symBinAddr: 0x10000AC58, symSize: 0x48 }
  - { offsetInCU: 0x117C8, offset: 0x23E29, size: 0x8, addend: 0x0, symName: __ZNSt3__14pairIPiS1_EC1B8ue170006IRS1_S1_LPv0EEEOT_OT0_, symObjAddr: 0x6F1C, symBinAddr: 0x10000AE80, symSize: 0x3C }
  - { offsetInCU: 0x11825, offset: 0x23E86, size: 0x8, addend: 0x0, symName: __ZNSt3__14pairIPiS1_EC2B8ue170006IRS1_S1_LPv0EEEOT_OT0_, symObjAddr: 0x6F58, symBinAddr: 0x10000AEBC, symSize: 0x34 }
  - { offsetInCU: 0x11882, offset: 0x23EE3, size: 0x8, addend: 0x0, symName: __ZNSt3__118__unwrap_iter_implIPiLb1EE8__unwrapB8ue170006ES1_, symObjAddr: 0x6F8C, symBinAddr: 0x10000AEF0, symSize: 0x24 }
  - { offsetInCU: 0x118A4, offset: 0x23F05, size: 0x8, addend: 0x0, symName: __ZNSt3__14pairIPiS1_EC1B8ue170006IS1_S1_LPv0EEEOT_OT0_, symObjAddr: 0x6FB0, symBinAddr: 0x10000AF14, symSize: 0x3C }
  - { offsetInCU: 0x11901, offset: 0x23F62, size: 0x8, addend: 0x0, symName: __ZNSt3__14pairIPiS1_EC2B8ue170006IS1_S1_LPv0EEEOT_OT0_, symObjAddr: 0x6FEC, symBinAddr: 0x10000AF50, symSize: 0x34 }
  - { offsetInCU: 0x1195E, offset: 0x23FBF, size: 0x8, addend: 0x0, symName: __ZNSt3__118__unwrap_iter_implIPiLb1EE8__rewrapB8ue170006ES1_S1_, symObjAddr: 0x7020, symBinAddr: 0x10000AF84, symSize: 0x50 }
  - { offsetInCU: 0x1198E, offset: 0x23FEF, size: 0x8, addend: 0x0, symName: __ZNSt3__111__wrap_iterIPKiEC2B8ue170006IPiEERKNS0_IT_EEPNS_9enable_ifIXsr14is_convertibleIS6_S2_EE5valueEvE4typeE, symObjAddr: 0x7070, symBinAddr: 0x10000AFD4, symSize: 0x40 }
  - { offsetInCU: 0x119D7, offset: 0x24038, size: 0x8, addend: 0x0, symName: __ZNKSt3__111__wrap_iterIPiE4baseB8ue170006Ev, symObjAddr: 0x70B0, symBinAddr: 0x10000B014, symSize: 0x18 }
  - { offsetInCU: 0x119FB, offset: 0x2405C, size: 0x8, addend: 0x0, symName: __ZNSt3__113basic_ostreamIcNS_11char_traitsIcEEEC2B8ue170006EPNS_15basic_streambufIcS2_EE, symObjAddr: 0x710C, symBinAddr: 0x10000B02C, symSize: 0x60 }
...
